Microchip MPLAB XC8 Compiler V1.21 ()

Linker command line:

--edf=C:\Program Files (x86)\Microchip\xc8\v1.21\dat\en_msgs.txt \
  --UDF=html\Frankfurt_RS-232.X.debug.link.html -cs \
  -h+dist/default/debug\Frankfurt_RS-232.X.debug.sym \
  --cmf=dist/default/debug\Frankfurt_RS-232.X.debug.cmf -z -Q18F2580 \
  -oC:\Users\GRODAN~1\AppData\Local\Temp\s5u8.6 \
  -Mdist/default/debug/Frankfurt_RS-232.X.debug.map -E1 -ver=XC8 \
  -ACODE=072h-07CFFh -ACONST=072h-07CFFh -ASMALLCONST=0600h-06FFhx119 \
  -AMEDIUMCONST=0600h-07CFFh -ACOMRAM=01h-05Fh -AABS1=00h-05EEh \
  -ABIGRAM=01h-05EEh -ARAM=060h-0FFh,0100h-01FFhx4,0500h-05EEh \
  -ABANK0=060h-0FFh -ABANK1=0100h-01FFh -ABANK2=0200h-02FFh \
  -ABANK3=0300h-03FFh -ABANK4=0400h-04FFh -ABANK5=0500h-05EEh \
  -ASFR=0D00h-0DFFhx2,0F00h-0F5Fh,0F60h-0F9Bh,0F9Dh-0FD3h,0FD5h-0FDAh,0FE0h-0FE2h,0FE8h-0FEAh,0FF0h-0FFBh \
  -preset_vec=00h,intcode,intcodelo=018h,powerup,init,end_init \
  -pramtop=0600h -psmallconst=SMALLCONST -pmediumconst=MEDIUMCONST \
  -pconst=CONST -AFARRAM=00h-00h -ACONFIG=0300000h-030000Dh -pconfig=CONFIG \
  -AIDLOC=0200000h-0200007h -pidloc=IDLOC -AEEDATA=0F00000h-0F000FFh \
  -peeprom_data=EEDATA \
  -prdata=COMRAM,nvrram=COMRAM,nvbit=COMRAM,rbss=COMRAM,rbit=COMRAM \
  -pfarbss=FARRAM,fardata=FARRAM,nvFARRAM=FARRAM \
  -pintsave_regs=BIGRAM,bigbss=BIGRAM,bigdata=BIGRAM -pbss=RAM \
  -pidata=CODE,irdata=CODE,ibigdata=CODE,ifardata=CODE \
  C:\Users\GRODAN~1\AppData\Local\Temp\s5u8.obj \
  dist/default/debug\Frankfurt_RS-232.X.debug.obj \
  C:\Program Files (x86)\Microchip\xc8\v1.21\lib\pic18-trace-obj.lib 

Object code version is 3.11

Machine type is 18F2580

Call graph: (short form)




                Name                               Link     Load   Length Selector   Space Scale
C:\Users\GRODAN~1\AppData\Local\Temp\s5u8.obj
                end_init                            1A8      1A8        4        C       0
                reset_vec                             0        0        6        0       0
                idloc                            200000   200000        8   200000       0
                config                           300000   300000        E   300000       0
dist/default/debug\Frankfurt_RS-232.X.debug.obj
                intcodelo                            18       18      190        C       0
                mediumconst                        6CD8     6CD8     1028     366C       0
                text84                             1D1E     1D1E       1E      E8F       0
                text83                             3ADE     3ADE      126     1D6F       0
                text82                             1CA6     1CA6       12      E53       0
                text80                             2032     2032       40     1019       0
                text79                             1CB8     1CB8       12      E5C       0
                text78                             220E     220E       4E     1107       0
                text77                             1D78     1D78       26      EBC       0
                text76                             289C     289C       8A     144E       0
                text75                             1C9E     1C9E        8      E4F       0
                text74                             1CCA     1CCA       12      E65       0
                text73                             2306     2306       5C     1183       0
                text72                             1D3C     1D3C       1E      E9E       0
                text71                             1D06     1D06       18      E83       0
                text70                             2796     2796       82     13CB       0
                text69                             20B2     20B2       44     1059       0
                text68                             1CDC     1CDC       14      E6E       0
                text67                             225C     225C       54     112E       0
                text66                             25C0     25C0       72     12E0       0
                text65                             21C4     21C4       4A     10E2       0
                text64                             1F78     1F78       3E      FBC       0
                text63                             2B76     2B76       A0     15BB       0
                text62                             1E5A     1E5A       38      F2D       0
                text61                             2926     2926       90     1493       0
                text60                             2EF0     2EF0       CE     1778       0
                text59                             1D5A     1D5A       1E      EAD       0
                text58                             2632     2632       76     1319       0
                text57                             23BE     23BE       62     11DF       0
                text56                             1E28     1E28       32      F14       0
                text55                             52BE     52BE      74C     295F       0
                text54                             26A8     26A8       76     1354       0
                text53                             39C0     39C0      11E     1CE0       0
                text52                             4808     4808      20C     2404       0
                text51                             1DF8     1DF8       30      EFC       0
                text50                             2818     2818       84     140C       0
                text49                             4A14     4A14      276     250A       0
                text48                             1F3C     1F3C       3C      F9E       0
                text47                             1CF0     1CF0       16      E78       0
                text46                             2420     2420       62     1210       0
                text45                             1FB6     1FB6       3E      FDB       0
                text44                             271E     271E       78     138F       0
                text43                             2362     2362       5C     11B1       0
                text42                             20F6     20F6       44     107B       0
                text41                             213A     213A       44     109D       0
                text40                             29B6     29B6       92     14DB       0
                text39                             36A8     36A8       FE     1B54       0
                text38                             418A     418A      188     20C5       0
                text37                             4C8A     4C8A      29A     2645       0
                text36                             400A     400A      180     2005       0
                text35                             1D9E     1D9E       2C      ECF       0
                text34                             38AC     38AC      114     1C56       0
                text33                             3E98     3E98      172     1F4C       0
                text32                             1F02     1F02       3A      F81       0
                text31                             2D74     2D74       BC     16BA       0
                text30                             2C16     2C16       A8     160B       0
                text29                             22B0     22B0       56     1158       0
                text28                             2FBE     2FBE       D0     17DF       0
                text27                             37A6     37A6      106     1BD3       0
                text26                             2A48     2A48       94     1524       0
                text25                             33EE     33EE       E6     19F7       0
                text24                             1DCA     1DCA       2E      EE5       0
                text23                             308E     308E       D0     1847       0
                text22                             217E     217E       46     10BF       0
                text21                             3236     3236       DA     191B       0
                text20                             462C     462C      1DC     2316       0
                text19                             5A0A     5A0A     12CE     2D05       0
                text18                             24E4     24E4       6E     1272       0
                text17                             1E92     1E92       38      F49       0
                text16                             2552     2552       6E     12A9       0
                text15                             3C04     3C04      148     1E02       0
                text14                             1ECA     1ECA       38      F65       0
                text13                             315E     315E       D8     18AF       0
                text12                             2CBE     2CBE       B6     165F       0
                text11                             2072     2072       40     1039       0
                text10                             3310     3310       DE     1988       0
                text9                              2E30     2E30       C0     1718       0
                text8                              35BA     35BA       EE     1ADD       0
                text7                              4312     4312      188     2189       0
                text6                              34D4     34D4       E6     1A6A       0
                text5                              449A     449A      192     224D       0
                text4                              1FF4     1FF4       3E      FFA       0
                text3                              2ADC     2ADC       9A     156E       0
                text2                              4F24     4F24      39A     2792       0
                text1                              1C9C     1C9C        2      E4E       0
                text0                              3D4C     3D4C      14C     1EA6       0
                cstackCOMRAM                          1        1       2F        1       1
                cstackBANK0                          60       60       6D       60       1
                cstackBANK2                         280      280       3D      200       1
                bssBIGRAM                           400      400      1EE      400       1
                bssBANK3                            300      300      100      300       1
                bssBANK2                            200      200       80      200       1
                bssBANK1                            100      100       D4      100       1
                bssBANK0                             CD       CD       13       60       1
                bssCOMRAM                            30       30       18        1       1
                cinit                              2482     2482       62     1241       0
                nvBANK0                              E0       E0        1       60       1

C:\Program Files (x86)\Microchip\xc8\v1.21\lib\pic18-trace-obj.lib

TOTAL           Name                               Link     Load   Length     Space
        CLASS   CODE           
                end_init                            1A8      1A8        4         0
                intcodelo                            18       18      190         0
                reset_vec                             0        0        6         0
                text84                             1D1E     1D1E       1E         0
                text83                             3ADE     3ADE      126         0
                text82                             1CA6     1CA6       12         0
                text80                             2032     2032       40         0
                text79                             1CB8     1CB8       12         0
                text78                             220E     220E       4E         0
                text77                             1D78     1D78       26         0
                text76                             289C     289C       8A         0
                text75                             1C9E     1C9E        8         0
                text74                             1CCA     1CCA       12         0
                text73                             2306     2306       5C         0
                text72                             1D3C     1D3C       1E         0
                text71                             1D06     1D06       18         0
                text70                             2796     2796       82         0
                text69                             20B2     20B2       44         0
                text68                             1CDC     1CDC       14         0
                text67                             225C     225C       54         0
                text66                             25C0     25C0       72         0
                text65                             21C4     21C4       4A         0
                text64                             1F78     1F78       3E         0
                text63                             2B76     2B76       A0         0
                text62                             1E5A     1E5A       38         0
                text61                             2926     2926       90         0
                text60                             2EF0     2EF0       CE         0
                text59                             1D5A     1D5A       1E         0
                text58                             2632     2632       76         0
                text57                             23BE     23BE       62         0
                text56                             1E28     1E28       32         0
                text55                             52BE     52BE      74C         0
                text54                             26A8     26A8       76         0
                text53                             39C0     39C0      11E         0
                text52                             4808     4808      20C         0
                text51                             1DF8     1DF8       30         0
                text50                             2818     2818       84         0
                text49                             4A14     4A14      276         0
                text48                             1F3C     1F3C       3C         0
                text47                             1CF0     1CF0       16         0
                text46                             2420     2420       62         0
                text45                             1FB6     1FB6       3E         0
                text44                             271E     271E       78         0
                text43                             2362     2362       5C         0
                text42                             20F6     20F6       44         0
                text41                             213A     213A       44         0
                text40                             29B6     29B6       92         0
                text39                             36A8     36A8       FE         0
                text38                             418A     418A      188         0
                text37                             4C8A     4C8A      29A         0
                text36                             400A     400A      180         0
                text35                             1D9E     1D9E       2C         0
                text34                             38AC     38AC      114         0
                text33                             3E98     3E98      172         0
                text32                             1F02     1F02       3A         0
                text31                             2D74     2D74       BC         0
                text30                             2C16     2C16       A8         0
                text29                             22B0     22B0       56         0
                text28                             2FBE     2FBE       D0         0
                text27                             37A6     37A6      106         0
                text26                             2A48     2A48       94         0
                text25                             33EE     33EE       E6         0
                text24                             1DCA     1DCA       2E         0
                text23                             308E     308E       D0         0
                text22                             217E     217E       46         0
                text21                             3236     3236       DA         0
                text20                             462C     462C      1DC         0
                text19                             5A0A     5A0A     12CE         0
                text18                             24E4     24E4       6E         0
                text17                             1E92     1E92       38         0
                text16                             2552     2552       6E         0
                text15                             3C04     3C04      148         0
                text14                             1ECA     1ECA       38         0
                text13                             315E     315E       D8         0
                text12                             2CBE     2CBE       B6         0
                text11                             2072     2072       40         0
                text10                             3310     3310       DE         0
                text9                              2E30     2E30       C0         0
                text8                              35BA     35BA       EE         0
                text7                              4312     4312      188         0
                text6                              34D4     34D4       E6         0
                text5                              449A     449A      192         0
                text4                              1FF4     1FF4       3E         0
                text3                              2ADC     2ADC       9A         0
                text2                              4F24     4F24      39A         0
                text1                              1C9C     1C9C        2         0
                text0                              3D4C     3D4C      14C         0
                cinit                              2482     2482       62         0

        CLASS   CONST          

        CLASS   SMALLCONST     

        CLASS   MEDIUMCONST    
                mediumconst                        6CD8     6CD8     1028         0

        CLASS   COMRAM         
                cstackCOMRAM                          1        1       2F         1
                bssCOMRAM                            30       30       18         1

        CLASS   ABS1           

        CLASS   BIGRAM         
                bssBIGRAM                           400      400      1EE         1

        CLASS   RAM            

        CLASS   BANK0          
                cstackBANK0                          60       60       6D         1
                bssBANK0                             CD       CD       13         1
                nvBANK0                              E0       E0        1         1

        CLASS   BANK1          
                bssBANK1                            100      100       D4         1

        CLASS   BANK2          
                cstackBANK2                         280      280       3D         1
                bssBANK2                            200      200       80         1

        CLASS   BANK3          
                bssBANK3                            300      300      100         1

        CLASS   BANK4          

        CLASS   BANK5          

        CLASS   SFR            

        CLASS   FARRAM         

        CLASS   CONFIG         
                config                           300000   300000        E         0

        CLASS   IDLOC          
                idloc                            200000   200000        8         0

        CLASS   EEDATA         



SEGMENTS        Name                           Load    Length   Top    Selector   Space  Class

                reset_vec                      000000  000006  000006         0       0  CODE    
                cstackCOMRAM                   000001  000047  000048         1       1  COMRAM  
                intcodelo                      000018  000194  0001AC         C       0  CODE    
                cstackBANK0                    000060  000081  0000E1        60       1  BANK0   
                bssBANK1                       000100  0000D4  0001D4       100       1  BANK1   
                bssBANK2                       000200  0000BD  0002BD       200       1  BANK2   
                bssBANK3                       000300  000100  000400       300       1  BANK3   
                bssBIGRAM                      000400  0001EE  0005EE       400       1  BIGRAM  
                text1                          001C9C  000002  001C9E       E4E       0  CODE    
                text75                         001C9E  000008  001CA6       E4F       0  CODE    
                text82                         001CA6  000012  001CB8       E53       0  CODE    
                text79                         001CB8  000012  001CCA       E5C       0  CODE    
                text74                         001CCA  000012  001CDC       E65       0  CODE    
                text68                         001CDC  000014  001CF0       E6E       0  CODE    
                text47                         001CF0  000016  001D06       E78       0  CODE    
                text71                         001D06  000018  001D1E       E83       0  CODE    
                text84                         001D1E  00001E  001D3C       E8F       0  CODE    
                text72                         001D3C  00001E  001D5A       E9E       0  CODE    
                text59                         001D5A  00001E  001D78       EAD       0  CODE    
                text77                         001D78  000026  001D9E       EBC       0  CODE    
                text35                         001D9E  00002C  001DCA       ECF       0  CODE    
                text24                         001DCA  00002E  001DF8       EE5       0  CODE    
                text51                         001DF8  000030  001E28       EFC       0  CODE    
                text56                         001E28  000032  001E5A       F14       0  CODE    
                text62                         001E5A  000038  001E92       F2D       0  CODE    
                text17                         001E92  000038  001ECA       F49       0  CODE    
                text14                         001ECA  000038  001F02       F65       0  CODE    
                text32                         001F02  00003A  001F3C       F81       0  CODE    
                text48                         001F3C  00003C  001F78       F9E       0  CODE    
                text64                         001F78  00003E  001FB6       FBC       0  CODE    
                text45                         001FB6  00003E  001FF4       FDB       0  CODE    
                text4                          001FF4  00003E  002032       FFA       0  CODE    
                text80                         002032  000040  002072      1019       0  CODE    
                text11                         002072  000040  0020B2      1039       0  CODE    
                text69                         0020B2  000044  0020F6      1059       0  CODE    
                text42                         0020F6  000044  00213A      107B       0  CODE    
                text41                         00213A  000044  00217E      109D       0  CODE    
                text22                         00217E  000046  0021C4      10BF       0  CODE    
                text65                         0021C4  00004A  00220E      10E2       0  CODE    
                text78                         00220E  00004E  00225C      1107       0  CODE    
                text67                         00225C  000054  0022B0      112E       0  CODE    
                text29                         0022B0  000056  002306      1158       0  CODE    
                text73                         002306  00005C  002362      1183       0  CODE    
                text43                         002362  00005C  0023BE      11B1       0  CODE    
                text57                         0023BE  000062  002420      11DF       0  CODE    
                text46                         002420  000062  002482      1210       0  CODE    
                cinit                          002482  000062  0024E4      1241       0  CODE    
                text18                         0024E4  00006E  002552      1272       0  CODE    
                text16                         002552  00006E  0025C0      12A9       0  CODE    
                text66                         0025C0  000072  002632      12E0       0  CODE    
                text58                         002632  000076  0026A8      1319       0  CODE    
                text54                         0026A8  000076  00271E      1354       0  CODE    
                text44                         00271E  000078  002796      138F       0  CODE    
                text70                         002796  000082  002818      13CB       0  CODE    
                text50                         002818  000084  00289C      140C       0  CODE    
                text76                         00289C  00008A  002926      144E       0  CODE    
                text61                         002926  000090  0029B6      1493       0  CODE    
                text40                         0029B6  000092  002A48      14DB       0  CODE    
                text26                         002A48  000094  002ADC      1524       0  CODE    
                text3                          002ADC  00009A  002B76      156E       0  CODE    
                text63                         002B76  0000A0  002C16      15BB       0  CODE    
                text30                         002C16  0000A8  002CBE      160B       0  CODE    
                text12                         002CBE  0000B6  002D74      165F       0  CODE    
                text31                         002D74  0000BC  002E30      16BA       0  CODE    
                text9                          002E30  0000C0  002EF0      1718       0  CODE    
                text60                         002EF0  0000CE  002FBE      1778       0  CODE    
                text28                         002FBE  0000D0  00308E      17DF       0  CODE    
                text23                         00308E  0000D0  00315E      1847       0  CODE    
                text13                         00315E  0000D8  003236      18AF       0  CODE    
                text21                         003236  0000DA  003310      191B       0  CODE    
                text10                         003310  0000DE  0033EE      1988       0  CODE    
                text25                         0033EE  0000E6  0034D4      19F7       0  CODE    
                text6                          0034D4  0000E6  0035BA      1A6A       0  CODE    
                text8                          0035BA  0000EE  0036A8      1ADD       0  CODE    
                text39                         0036A8  0000FE  0037A6      1B54       0  CODE    
                text27                         0037A6  000106  0038AC      1BD3       0  CODE    
                text34                         0038AC  000114  0039C0      1C56       0  CODE    
                text53                         0039C0  00011E  003ADE      1CE0       0  CODE    
                text83                         003ADE  000126  003C04      1D6F       0  CODE    
                text15                         003C04  000148  003D4C      1E02       0  CODE    
                text0                          003D4C  00014C  003E98      1EA6       0  CODE    
                text33                         003E98  000172  00400A      1F4C       0  CODE    
                text36                         00400A  000180  00418A      2005       0  CODE    
                text38                         00418A  000188  004312      20C5       0  CODE    
                text7                          004312  000188  00449A      2189       0  CODE    
                text5                          00449A  000192  00462C      224D       0  CODE    
                text20                         00462C  0001DC  004808      2316       0  CODE    
                text52                         004808  00020C  004A14      2404       0  CODE    
                text49                         004A14  000276  004C8A      250A       0  CODE    
                text37                         004C8A  00029A  004F24      2645       0  CODE    
                text2                          004F24  00039A  0052BE      2792       0  CODE    
                text55                         0052BE  00074C  005A0A      295F       0  CODE    
                text19                         005A0A  0012CE  006CD8      2D05       0  CODE    
                mediumconst                    006CD8  001028  007D00      366C       0  MEDIUMCO
                idloc                          200000  000008  200008    200000       0  IDLOC   
                config                         300000  00000E  30000E    300000       0  CONFIG  


UNUSED ADDRESS RANGES

        Name                Unused          Largest block    Delta
        BANK0            0000E1-0000FF               1F
        BANK1            0001D4-0001FF               2C
        BANK2            0002BD-0002FF               43
        BANK5            0005EE-0005EE                1
        BIGRAM           000048-00005F               18
                         0000E1-0000FF               1F
                         0001D4-0001FF               2C
                         0002BD-0002FF               43
                         0005EE-0005EE                1
        CODE             0001AC-001C9B             1AF0
        COMRAM           000048-00005F               18
        CONST            0001AC-001C9B             1AF0
        EEDATA           F00000-F000FF              100
        MEDIUMCONST      000600-001C9B             169C
        RAM              0000E1-0000FF               1F
                         0001D4-0001FF               2C
                         0002BD-0002FF               43
                         0005EE-0005EE                1
        SFR              000D00-000F9B              100
                         000F9D-000FD3               37
                         000FD5-000FDA                6
                         000FE0-000FE2                3
                         000FE8-000FEA                3
                         000FF0-000FFB                C
        SMALLCONST       000600-001C9B              100

                                  Symbol Table

?_ECANReceiveMessage                    cstackCOMRAM 000020
?_ECANSendMessage                       cstackCOMRAM 000023
?_OpenUSART                             cstackCOMRAM 000019
?_WriteTimer0                           cstackCOMRAM 000019
?__CANIDToRegs                          cstackCOMRAM 000019
?__ECANPointBuffer                      cstackCOMRAM 000019
?__RegsToCANID                          cstackCOMRAM 000019
?___lldiv                               cstackCOMRAM 000019
?___llmod                               cstackCOMRAM 000026
?___lwdiv                               cstackCOMRAM 000019
?___lwmod                               cstackCOMRAM 000019
?___wmul                                cstackCOMRAM 000019
?_atoi                                  cstackCOMRAM 00001F
?_calcCRC                               cstackCOMRAM 000025
?_crc8                                  cstackCOMRAM 000020
?_fifo_init                             cstackCOMRAM 000019
?_fifo_read                             cstackCOMRAM 000019
?_fifo_write                            cstackCOMRAM 000001
?_getCANFrame                           cstackCOMRAM 00002C
?_getVSCPFrame                          cstackBANK0  000062
?_hexStringToBytes                      cstackCOMRAM 00001D
?_itoa                                  cstackCOMRAM 000029
?_memcpy                                cstackCOMRAM 000019
?_memset                                cstackCOMRAM 000019
?_putsUSART                             cstackCOMRAM 00001A
?_readEEPROM                            cstackCOMRAM 000019
?_readRegister                          cstackBANK0  00009E
?_readRegisterExtended                  cstackBANK0  00009E
?_sendCANFrame                          cstackBANK0  00007C
?_sendEscapedUartData                   cstackCOMRAM 000025
?_sendVSCPDriverCommandReply            cstackCOMRAM 000028
?_sendVSCPFrame                         cstackBANK0  000083
?_setFilter                             cstackCOMRAM 000019
?_sprintf                               cstackBANK0  000060
?_strcat                                cstackCOMRAM 000019
?_strchr                                cstackCOMRAM 000019
?_strcpy                                cstackCOMRAM 000019
?_strcspn                               cstackCOMRAM 00001F
?_strichr                               cstackCOMRAM 00001A
?_stristr                               cstackCOMRAM 000026
?_strlen                                cstackCOMRAM 000019
?_strnicmp                              cstackCOMRAM 00001D
?_strspn                                cstackCOMRAM 00001F
?_strtok                                cstackCOMRAM 000025
?_ultoa                                 cstackBANK0  000060
?_utoa                                  cstackCOMRAM 000020
?_writeEEPROM                           cstackCOMRAM 000019
?_writeRegisterExtended                 cstackBANK0  00009E
?i1_WriteTimer0                         cstackCOMRAM 000001
ECANReceiveMessage@data                 cstackCOMRAM 000020
ECANReceiveMessage@dataLen              cstackCOMRAM 000022
ECANReceiveMessage@i                    cstackCOMRAM 000027
ECANReceiveMessage@id                   cstackCOMRAM 000024
ECANReceiveMessage@mode                 cstackCOMRAM 000028
ECANReceiveMessage@msgFlags             cstackCOMRAM 000023
ECANReceiveMessage@ptr                  cstackCOMRAM 00002A
ECANReceiveMessage@savedPtr             cstackCOMRAM 000025
ECANReceiveMessage@temp                 cstackCOMRAM 000029
ECANSendMessage@buffers                 cstackBANK0  000073
ECANSendMessage@data                    cstackCOMRAM 000027
ECANSendMessage@dataLen                 cstackCOMRAM 000029
ECANSendMessage@i                       cstackBANK0  000079
ECANSendMessage@id                      cstackCOMRAM 000023
ECANSendMessage@j                       cstackBANK0  000074
ECANSendMessage@mode                    cstackBANK0  000072
ECANSendMessage@msgFlags                cstackCOMRAM 00002A
ECANSendMessage@pb                      cstackBANK0  000060
ECANSendMessage@ptr                     cstackBANK0  00007A
ECANSendMessage@temp                    cstackBANK0  000078
ECANSendMessage@tempBSEL0               cstackBANK0  000075
ECANSendMessage@tempPtr                 cstackBANK0  000076
ECANSetOperationMode@mode               cstackCOMRAM 000019
Interrupt@c                             cstackCOMRAM 000018
OpenTimer0@config                       cstackCOMRAM 000019
OpenUSART@config                        cstackCOMRAM 00001B
OpenUSART@spbrg                         cstackCOMRAM 000019
PL10                                    text19       006C0C
PL12                                    text55       00593E
PL14                                    text83       003BD6
PL16                                    text19       006C28
PL18                                    text55       00595C
PL2                                     text19       006BA6
PL20                                    text55       00596C
PL22                                    text39       003798
PL24                                    text13       00321C
PL26                                    text60       002F9C
PL28                                    text8        003698
PL30                                    text19       006C42
PL32                                    text34       00396C
PL34                                    text19       006C56
PL36                                    text19       006C68
PL38                                    text53       003A84
PL4                                     text9        002EE0
PL40                                    text19       006C76
PL42                                    text19       006C90
PL44                                    text55       005992
PL46                                    text13       00322C
PL48                                    text34       003980
PL50                                    text55       0059AC
PL52                                    text19       006CAA
PL54                                    text34       003990
PL56                                    text7        004484
PL58                                    text19       006CC2
PL6                                     text19       006BB4
PL60                                    text61       0029A8
PL62                                    text55       0059C2
PL64                                    text53       003A92
PL66                                    text55       0059D0
PL68                                    text53       003AA6
PL70                                    text53       003AB8
PL72                                    text6        0035A6
PL74                                    text34       0039A2
PL76                                    text27       003898
PL78                                    text53       003ACC
PL8                                     text19       006BC2
PL80                                    text55       0059E4
PL82                                    text2        0052B2
PL84                                    text55       0059F6
PL86                                    text56       001E4A
PL88                                    text5        00461E
PL90                                    text52       004A06
PL92                                    text80       002064
PL94                                    text15       003D3E
PL96                                    text34       0039B6
PL98                                    text55       005A00
ReadUSART@data                          cstackCOMRAM 000001
WriteTimer0@timer                       cstackCOMRAM 00001B
WriteTimer0@timer0                      cstackCOMRAM 000019
WriteUSART@data                         cstackCOMRAM 000019
_B0CON                                  (abs)        000E20
_B0RXFUL                                (abs)        007107
_B0TXEN                                 (abs)        006FC2
_B1CON                                  (abs)        000E30
_B1RXFUL                                (abs)        007187
_B1TXEN                                 (abs)        006FC3
_B2CON                                  (abs)        000E40
_B2RXFUL                                (abs)        007207
_B2TXEN                                 (abs)        006FC4
_B3CON                                  (abs)        000E50
_B3RXFUL                                (abs)        007287
_B3TXEN                                 (abs)        006FC5
_B4CON                                  (abs)        000E60
_B4RXFUL                                (abs)        007307
_B4TXEN                                 (abs)        006FC6
_B5CON                                  (abs)        000E70
_B5RXFUL                                (abs)        007387
_B5TXEN                                 (abs)        006FC7
_BRGCON1                                (abs)        000F70
_BRGCON2                                (abs)        000F71
_BRGCON3                                (abs)        000F72
_BSEL0                                  (abs)        000DF8
_CANCON                                 (abs)        000F6F
_CIOCON                                 (abs)        000F73
_COMSTATbits                            (abs)        000F74
_ECANCON                                (abs)        000F77
_ECANInitialize                         text70       002796
_ECANReceiveMessage                     text52       004808
_ECANSendMessage                        text33       003E98
_ECANSetOperationMode                   text71       001D06
_EEADR                                  (abs)        000FA9
_EECON1bits                             (abs)        000FA6
_EECON2                                 (abs)        000FA7
_EEDATA                                 (abs)        000FA8
_FIFOEMPTY                              (abs)        007BA7
_INTCONbits                             (abs)        000FF2
_IRXIF                                  (abs)        007D27
_Interrupt                              intcodelo    000018
_LATC1                                  (abs)        007C59
_MDSEL0                                 (abs)        007BBE
_MDSEL1                                 (abs)        007BBF
_MSEL0                                  (abs)        000DF0
_MSEL1                                  (abs)        000DF1
_MSEL2                                  (abs)        000DF2
_OSCCONbits                             (abs)        000FD3
_OSCTUNEbits                            (abs)        000F9B
_OpenTimer0                             text72       001D3C
_OpenUSART                              text73       002306
_PEIE                                   (abs)        007F96
_PIE1bits                               (abs)        000F9D
_PIR1bits                               (abs)        000F9E
_PIR2bits                               (abs)        000FA1
_PIR3bits                               (abs)        000FA4
_RCIE                                   (abs)        007CED
_RCIF                                   (abs)        007CF5
_RCIP                                   (abs)        007CFD
_RCREG                                  (abs)        000FAE
_RCSTA                                  (abs)        000FAB
_RCSTAbits                              (abs)        000FAB
_RXB0CON                                (abs)        000F60
_RXB0FILHIT0                            (abs)        007B00
_RXB0FUL                                (abs)        007B07
_RXB0IF                                 (abs)        007D20
_RXB0OVFL                               (abs)        007BA7
_RXB1CON                                (abs)        000F50
_RXB1CONbits                            (abs)        000F50
_RXB1IF                                 (abs)        007D21
_RXB1OVFL                               (abs)        007BA6
_RXERRCNT                               (abs)        000F75
_RXF0EIDH                               (abs)        000F02
_RXF0EIDL                               (abs)        000F03
_RXF0SIDH                               (abs)        000F00
_RXF0SIDL                               (abs)        000F01
_RXF10EIDH                              (abs)        000D76
_RXF10EIDL                              (abs)        000D77
_RXF10SIDH                              (abs)        000D74
_RXF10SIDL                              (abs)        000D75
_RXF11EIDH                              (abs)        000D7A
_RXF11EIDL                              (abs)        000D7B
_RXF11SIDH                              (abs)        000D78
_RXF11SIDL                              (abs)        000D79
_RXF12EIDH                              (abs)        000D82
_RXF12EIDL                              (abs)        000D83
_RXF12SIDH                              (abs)        000D80
_RXF12SIDL                              (abs)        000D81
_RXF13EIDH                              (abs)        000D86
_RXF13EIDL                              (abs)        000D87
_RXF13SIDH                              (abs)        000D84
_RXF13SIDL                              (abs)        000D85
_RXF14EIDH                              (abs)        000D8A
_RXF14EIDL                              (abs)        000D8B
_RXF14SIDH                              (abs)        000D88
_RXF14SIDL                              (abs)        000D89
_RXF15EIDH                              (abs)        000D92
_RXF15EIDL                              (abs)        000D93
_RXF15SIDH                              (abs)        000D90
_RXF15SIDL                              (abs)        000D91
_RXF1EIDH                               (abs)        000F06
_RXF1EIDL                               (abs)        000F07
_RXF1SIDH                               (abs)        000F04
_RXF1SIDL                               (abs)        000F05
_RXF2EIDH                               (abs)        000F0A
_RXF2EIDL                               (abs)        000F0B
_RXF2SIDH                               (abs)        000F08
_RXF2SIDL                               (abs)        000F09
_RXF3EIDH                               (abs)        000F0E
_RXF3EIDL                               (abs)        000F0F
_RXF3SIDH                               (abs)        000F0C
_RXF3SIDL                               (abs)        000F0D
_RXF4EIDH                               (abs)        000F12
_RXF4EIDL                               (abs)        000F13
_RXF4SIDH                               (abs)        000F10
_RXF4SIDL                               (abs)        000F11
_RXF5EIDH                               (abs)        000F16
_RXF5EIDL                               (abs)        000F17
_RXF5SIDH                               (abs)        000F14
_RXF5SIDL                               (abs)        000F15
_RXF6EIDH                               (abs)        000D62
_RXF6EIDL                               (abs)        000D63
_RXF6SIDH                               (abs)        000D60
_RXF6SIDL                               (abs)        000D61
_RXF7EIDH                               (abs)        000D66
_RXF7EIDL                               (abs)        000D67
_RXF7SIDH                               (abs)        000D64
_RXF7SIDL                               (abs)        000D65
_RXF8EIDH                               (abs)        000D6A
_RXF8EIDL                               (abs)        000D6B
_RXF8SIDH                               (abs)        000D68
_RXF8SIDL                               (abs)        000D69
_RXF9EIDH                               (abs)        000D72
_RXF9EIDL                               (abs)        000D73
_RXF9SIDH                               (abs)        000D70
_RXF9SIDL                               (abs)        000D71
_RXFBCON0                               (abs)        000DE0
_RXFBCON1                               (abs)        000DE1
_RXFBCON2                               (abs)        000DE2
_RXFBCON3                               (abs)        000DE3
_RXFBCON4                               (abs)        000DE4
_RXFBCON5                               (abs)        000DE5
_RXFBCON6                               (abs)        000DE6
_RXFBCON7                               (abs)        000DE7
_RXFCON0                                (abs)        000DD4
_RXFCON1                                (abs)        000DD5
_RXM0EIDH                               (abs)        000F1A
_RXM0EIDL                               (abs)        000F1B
_RXM0EXIDM                              (abs)        0078CB
_RXM0SIDH                               (abs)        000F18
_RXM0SIDL                               (abs)        000F19
_RXM1EIDH                               (abs)        000F1E
_RXM1EIDL                               (abs)        000F1F
_RXM1EXIDEN                             (abs)        0078EB
_RXM1SIDH                               (abs)        000F1C
_RXM1SIDL                               (abs)        000F1D
_ReadUSART                              text84       001D1E
_SPBRG                                  (abs)        000FAF
_SPBRGH                                 (abs)        000FB0
_T0CON                                  (abs)        000FD5
_T0CONbits                              (abs)        000FD5
_TMR0H                                  (abs)        000FD7
_TMR0L                                  (abs)        000FD6
_TRISBbits                              (abs)        000F93
_TRISCbits                              (abs)        000F94
_TXB0CON                                (abs)        000F40
_TXB1CON                                (abs)        000F30
_TXB2CON                                (abs)        000F20
_TXERRCNT                               (abs)        000F76
_TXREG                                  (abs)        000FAD
_TXSTA                                  (abs)        000FAC
_TXSTAbits                              (abs)        000FAC
_USART_Status                           bssCOMRAM    000034
_WriteTimer0                            text74       001CCA
_WriteUSART                             text68       001CDC
__CANIDToRegs                           text34       0038AC
__CANIDToRegs@Value                     cstackCOMRAM 000022
__CANIDToRegs@ptr                       cstackCOMRAM 000019
__CANIDToRegs@type                      cstackCOMRAM 00001F
__CANIDToRegs@val                       cstackCOMRAM 00001B
__CFG_BBSIZ$2048                        (abs)        000000
__CFG_BOREN$BOACTIVE                    (abs)        000000
__CFG_BORV$3                            (abs)        000000
__CFG_CPB$ON                            (abs)        000000
__CFG_EBTR0$OFF                         (abs)        000000
__CFG_EBTR1$OFF                         (abs)        000000
__CFG_EBTR2$OFF                         (abs)        000000
__CFG_EBTR3$OFF                         (abs)        000000
__CFG_EBTRB$OFF                         (abs)        000000
__CFG_LVP$ON                            (abs)        000000
__CFG_OSC$HSPLL                         (abs)        000000
__CFG_STVREN$ON                         (abs)        000000
__CFG_WDT$ON                            (abs)        000000
__CFG_WDTPS$128                         (abs)        000000
__CFG_WRTD$OFF                          (abs)        000000
__ECANPointBuffer                       text54       0026A8
__ECANPointBuffer@b                     cstackCOMRAM 00001C
__ECANPointBuffer@pt                    cstackCOMRAM 00001D
__ECANRxFilterHitInfo                   bssCOMRAM    000035
__HRAM                                  (abs)        000000
__Habs1                                 abs1         000000
__Hbank0                                bank0        000000
__Hbank1                                bank1        000000
__Hbank2                                bank2        000000
__Hbank3                                bank3        000000
__Hbank4                                bank4        000000
__Hbank5                                bank5        000000
__Hbigbss                               bigbss       000000
__Hbigdata                              bigdata      000000
__Hbigram                               bigram       000000
__Hbss                                  bss          000000
__HbssBANK0                             bssBANK0     000000
__HbssBANK1                             bssBANK1     000000
__HbssBANK2                             bssBANK2     000000
__HbssBANK3                             bssBANK3     000000
__HbssBIGRAM                            bssBIGRAM    000000
__HbssCOMRAM                            bssCOMRAM    000000
__Hcinit                                cinit        000000
__Hclrtext                              clrtext      000000
__Hcomram                               comram       000000
__Hconfig                               config       30000E
__Hconst                                const        000000
__HcstackBANK0                          cstackBANK0  000000
__HcstackBANK2                          cstackBANK2  000000
__HcstackCOMRAM                         cstackCOMRAM 000000
__Hdata                                 data         000000
__Heeprom_data                          eeprom_data  000000
__Hend_init                             end_init     0001AC
__Hfarbss                               farbss       000000
__Hfardata                              fardata      000000
__Hibigdata                             ibigdata     000000
__Hidata                                idata        000000
__Hidloc                                idloc        200008
__Hifardata                             ifardata     000000
__Hinit                                 init         0001A8
__Hintcode                              intcode      000006
__Hintcode_body                         intcode_body 000000
__Hintcodelo                            intcodelo    0001A8
__Hintentry                             intentry     000000
__Hintret                               intret       000000
__Hintsave_regs                         intsave_regs 000000
__Hirdata                               irdata       000000
__Hmediumconst                          mediumconst  007D00
__HnvBANK0                              nvBANK0      000000
__HnvFARRAM                             nvFARRAM     000000
__Hnvbit                                nvbit        000000
__Hnvrram                               nvrram       000000
__Hpa_nodes                             pa_nodes     000000
__Hparam                                rparam       000000
__Hpowerup                              powerup      0001A8
__Hram                                  ram          000000
__Hramtop                               ramtop       000600
__Hrbit                                 rbit         000000
__Hrbss                                 rbss         000000
__Hrdata                                rdata        000000
__Hreset_vec                            reset_vec    000006
__Hrparam                               rparam       000000
__Hsfr                                  sfr          000000
__Hsmallconst                           smallconst   000000
__Hstruct                               struct       000000
__Htemp                                 temp         000000
__Htext                                 text         000000
__Htext0                                text0        000000
__Htext1                                text1        000000
__Htext10                               text10       000000
__Htext11                               text11       000000
__Htext12                               text12       000000
__Htext13                               text13       000000
__Htext14                               text14       000000
__Htext15                               text15       000000
__Htext16                               text16       000000
__Htext17                               text17       000000
__Htext18                               text18       000000
__Htext19                               text19       000000
__Htext2                                text2        000000
__Htext20                               text20       000000
__Htext21                               text21       000000
__Htext22                               text22       000000
__Htext23                               text23       000000
__Htext24                               text24       000000
__Htext25                               text25       000000
__Htext26                               text26       000000
__Htext27                               text27       000000
__Htext28                               text28       000000
__Htext29                               text29       000000
__Htext3                                text3        000000
__Htext30                               text30       000000
__Htext31                               text31       000000
__Htext32                               text32       000000
__Htext33                               text33       000000
__Htext34                               text34       000000
__Htext35                               text35       000000
__Htext36                               text36       000000
__Htext37                               text37       000000
__Htext38                               text38       000000
__Htext39                               text39       000000
__Htext4                                text4        000000
__Htext40                               text40       000000
__Htext41                               text41       000000
__Htext42                               text42       000000
__Htext43                               text43       000000
__Htext44                               text44       000000
__Htext45                               text45       000000
__Htext46                               text46       000000
__Htext47                               text47       000000
__Htext48                               text48       000000
__Htext49                               text49       000000
__Htext5                                text5        000000
__Htext50                               text50       000000
__Htext51                               text51       000000
__Htext52                               text52       000000
__Htext53                               text53       000000
__Htext54                               text54       000000
__Htext55                               text55       000000
__Htext56                               text56       000000
__Htext57                               text57       000000
__Htext58                               text58       000000
__Htext59                               text59       000000
__Htext6                                text6        000000
__Htext60                               text60       000000
__Htext61                               text61       000000
__Htext62                               text62       000000
__Htext63                               text63       000000
__Htext64                               text64       000000
__Htext65                               text65       000000
__Htext66                               text66       000000
__Htext67                               text67       000000
__Htext68                               text68       000000
__Htext69                               text69       000000
__Htext7                                text7        000000
__Htext70                               text70       000000
__Htext71                               text71       000000
__Htext72                               text72       000000
__Htext73                               text73       000000
__Htext74                               text74       000000
__Htext75                               text75       000000
__Htext76                               text76       000000
__Htext77                               text77       000000
__Htext78                               text78       000000
__Htext79                               text79       000000
__Htext8                                text8        000000
__Htext80                               text80       000000
__Htext82                               text82       000000
__Htext83                               text83       000000
__Htext84                               text84       000000
__Htext9                                text9        000000
__IT_INT_MASK                           bssCOMRAM    000036
__IT_SAVE_BSR                           bssCOMRAM    000037
__IT_SAVE_STATUS                        bssCOMRAM    000038
__IT_SAVE_WREG                          bssCOMRAM    000039
__LRAM                                  (abs)        000001
__Labs1                                 abs1         000000
__Lbank0                                bank0        000000
__Lbank1                                bank1        000000
__Lbank2                                bank2        000000
__Lbank3                                bank3        000000
__Lbank4                                bank4        000000
__Lbank5                                bank5        000000
__Lbigbss                               bigbss       000000
__Lbigdata                              bigdata      000000
__Lbigram                               bigram       000000
__Lbss                                  bss          000000
__LbssBANK0                             bssBANK0     000000
__LbssBANK1                             bssBANK1     000000
__LbssBANK2                             bssBANK2     000000
__LbssBANK3                             bssBANK3     000000
__LbssBIGRAM                            bssBIGRAM    000000
__LbssCOMRAM                            bssCOMRAM    000000
__Lcinit                                cinit        000000
__Lclrtext                              clrtext      000000
__Lcomram                               comram       000000
__Lconfig                               config       300000
__Lconst                                const        000000
__LcstackBANK0                          cstackBANK0  000000
__LcstackBANK2                          cstackBANK2  000000
__LcstackCOMRAM                         cstackCOMRAM 000000
__Ldata                                 data         000000
__Leeprom_data                          eeprom_data  000000
__Lend_init                             end_init     0001A8
__Lfarbss                               farbss       000000
__Lfardata                              fardata      000000
__Libigdata                             ibigdata     000000
__Lidata                                idata        000000
__Lidloc                                idloc        200000
__Lifardata                             ifardata     000000
__Linit                                 init         0001A8
__Lintcode                              intcode      000006
__Lintcode_body                         intcode_body 000000
__Lintcodelo                            intcodelo    000018
__Lintentry                             intentry     000000
__Lintret                               intret       000000
__Lintsave_regs                         intsave_regs 000000
__Lirdata                               irdata       000000
__Lmediumconst                          mediumconst  006CD8
__LnvBANK0                              nvBANK0      000000
__LnvFARRAM                             nvFARRAM     000000
__Lnvbit                                nvbit        000000
__Lnvrram                               nvrram       000000
__Lpa_nodes                             pa_nodes     000000
__Lparam                                rparam       000000
__Lpowerup                              powerup      0001A8
__Lram                                  ram          000000
__Lramtop                               ramtop       000600
__Lrbit                                 rbit         000000
__Lrbss                                 rbss         000000
__Lrdata                                rdata        000000
__Lreset_vec                            reset_vec    000000
__Lrparam                               rparam       000000
__Lsfr                                  sfr          000000
__Lsmallconst                           smallconst   000000
__Lstruct                               struct       000000
__Ltemp                                 temp         000000
__Ltext                                 text         000000
__Ltext0                                text0        000000
__Ltext1                                text1        000000
__Ltext10                               text10       000000
__Ltext11                               text11       000000
__Ltext12                               text12       000000
__Ltext13                               text13       000000
__Ltext14                               text14       000000
__Ltext15                               text15       000000
__Ltext16                               text16       000000
__Ltext17                               text17       000000
__Ltext18                               text18       000000
__Ltext19                               text19       000000
__Ltext2                                text2        000000
__Ltext20                               text20       000000
__Ltext21                               text21       000000
__Ltext22                               text22       000000
__Ltext23                               text23       000000
__Ltext24                               text24       000000
__Ltext25                               text25       000000
__Ltext26                               text26       000000
__Ltext27                               text27       000000
__Ltext28                               text28       000000
__Ltext29                               text29       000000
__Ltext3                                text3        000000
__Ltext30                               text30       000000
__Ltext31                               text31       000000
__Ltext32                               text32       000000
__Ltext33                               text33       000000
__Ltext34                               text34       000000
__Ltext35                               text35       000000
__Ltext36                               text36       000000
__Ltext37                               text37       000000
__Ltext38                               text38       000000
__Ltext39                               text39       000000
__Ltext4                                text4        000000
__Ltext40                               text40       000000
__Ltext41                               text41       000000
__Ltext42                               text42       000000
__Ltext43                               text43       000000
__Ltext44                               text44       000000
__Ltext45                               text45       000000
__Ltext46                               text46       000000
__Ltext47                               text47       000000
__Ltext48                               text48       000000
__Ltext49                               text49       000000
__Ltext5                                text5        000000
__Ltext50                               text50       000000
__Ltext51                               text51       000000
__Ltext52                               text52       000000
__Ltext53                               text53       000000
__Ltext54                               text54       000000
__Ltext55                               text55       000000
__Ltext56                               text56       000000
__Ltext57                               text57       000000
__Ltext58                               text58       000000
__Ltext59                               text59       000000
__Ltext6                                text6        000000
__Ltext60                               text60       000000
__Ltext61                               text61       000000
__Ltext62                               text62       000000
__Ltext63                               text63       000000
__Ltext64                               text64       000000
__Ltext65                               text65       000000
__Ltext66                               text66       000000
__Ltext67                               text67       000000
__Ltext68                               text68       000000
__Ltext69                               text69       000000
__Ltext7                                text7        000000
__Ltext70                               text70       000000
__Ltext71                               text71       000000
__Ltext72                               text72       000000
__Ltext73                               text73       000000
__Ltext74                               text74       000000
__Ltext75                               text75       000000
__Ltext76                               text76       000000
__Ltext77                               text77       000000
__Ltext78                               text78       000000
__Ltext79                               text79       000000
__Ltext8                                text8        000000
__Ltext80                               text80       000000
__Ltext82                               text82       000000
__Ltext83                               text83       000000
__Ltext84                               text84       000000
__Ltext9                                text9        000000
__RegsToCANID                           text53       0039C0
__RegsToCANID@Value                     cstackCOMRAM 00001F
__RegsToCANID@ptr                       cstackCOMRAM 000019
__RegsToCANID@type                      cstackCOMRAM 00001C
__RegsToCANID@val                       cstackCOMRAM 00001B
__S0                                    (abs)        30000E
__S1                                    (abs)        0005EE
___DCByte                               bssCOMRAM    00003A
___DCDelay                              nvBANK0      0000E0
___IT                                   (abs)        000101
___lldiv                                text58       002632
___lldiv@counter                        cstackCOMRAM 000025
___lldiv@dividend                       cstackCOMRAM 000019
___lldiv@divisor                        cstackCOMRAM 00001D
___lldiv@quotient                       cstackCOMRAM 000021
___llmod                                text57       0023BE
___llmod@counter                        cstackCOMRAM 00002E
___llmod@dividend                       cstackCOMRAM 000026
___llmod@divisor                        cstackCOMRAM 00002A
___lwdiv                                text65       0021C4
___lwdiv@counter                        cstackCOMRAM 00001D
___lwdiv@dividend                       cstackCOMRAM 000019
___lwdiv@divisor                        cstackCOMRAM 00001B
___lwdiv@quotient                       cstackCOMRAM 00001E
___lwmod                                text64       001F78
___lwmod@counter                        cstackCOMRAM 00001D
___lwmod@dividend                       cstackCOMRAM 000019
___lwmod@divisor                        cstackCOMRAM 00001B
___wmul                                 text56       001E28
___wmul@multiplicand                    cstackCOMRAM 00001B
___wmul@multiplier                      cstackCOMRAM 000019
___wmul@product                         cstackCOMRAM 00001D
__accesstop                             (abs)        000060
__activetblptr                          (abs)        000002
__end_ofPL10                            text19       006C28
__end_ofPL12                            text55       00595C
__end_ofPL14                            text83       003C04
__end_ofPL16                            text19       006C42
__end_ofPL18                            text55       00596C
__end_ofPL2                             text19       006BB4
__end_ofPL20                            text55       005992
__end_ofPL22                            text39       0037A6
__end_ofPL24                            text13       00322C
__end_ofPL26                            text60       002FBE
__end_ofPL28                            text8        0036A8
__end_ofPL30                            text19       006C56
__end_ofPL32                            text34       003980
__end_ofPL34                            text19       006C68
__end_ofPL36                            text19       006C76
__end_ofPL38                            text53       003A92
__end_ofPL4                             text9        002EF0
__end_ofPL40                            text19       006C90
__end_ofPL42                            text19       006CAA
__end_ofPL44                            text55       0059AC
__end_ofPL46                            text13       003236
__end_ofPL48                            text34       003990
__end_ofPL50                            text55       0059C2
__end_ofPL52                            text19       006CC2
__end_ofPL54                            text34       0039A2
__end_ofPL56                            text7        00449A
__end_ofPL58                            text19       006CD8
__end_ofPL6                             text19       006BC2
__end_ofPL60                            text61       0029B6
__end_ofPL62                            text55       0059D0
__end_ofPL64                            text53       003AA6
__end_ofPL66                            text55       0059E4
__end_ofPL68                            text53       003AB8
__end_ofPL70                            text53       003ACC
__end_ofPL72                            text6        0035BA
__end_ofPL74                            text34       0039B6
__end_ofPL76                            text27       0038AC
__end_ofPL78                            text53       003ADE
__end_ofPL8                             text19       006C0C
__end_ofPL80                            text55       0059F6
__end_ofPL82                            text2        0052BE
__end_ofPL84                            text55       005A00
__end_ofPL86                            text56       001E5A
__end_ofPL88                            text5        00462C
__end_ofPL90                            text52       004A14
__end_ofPL92                            text80       002072
__end_ofPL94                            text15       003D4C
__end_ofPL96                            text34       0039C0
__end_ofPL98                            text55       005A0A
__end_of_ECANInitialize                 text70       002818
__end_of_ECANReceiveMessage             text52       004A06
__end_of_ECANSendMessage                text33       00400A
__end_of_ECANSetOperationMode           text71       001D1E
__end_of_Interrupt                      intcodelo    0001A8
__end_of_OpenTimer0                     text72       001D5A
__end_of_OpenUSART                      text73       002362
__end_of_ReadUSART                      text84       001D3C
__end_of_WriteTimer0                    text74       001CDC
__end_of_WriteUSART                     text68       001CF0
__end_of__CANIDToRegs                   text34       00396C
__end_of__ECANPointBuffer               text54       00271E
__end_of__RegsToCANID                   text53       003A84
__end_of___lldiv                        text58       0026A8
__end_of___llmod                        text57       002420
__end_of___lwdiv                        text65       00220E
__end_of___lwmod                        text64       001FB6
__end_of___wmul                         text56       001E4A
__end_of__initialization                cinit        0024DA
__end_of__stringdata                    mediumconst  007CFF
__end_of_atoi                           text39       003798
__end_of_calcCRC                        text14       001F02
__end_of_crc8                           text17       001ECA
__end_of_doModeSLCAN                    text2        0052B2
__end_of_doModeVerbose                  text19       006BA6
__end_of_doModeVscp                     text7        004484
__end_of_doModeVscpNode                 text1        001C9E
__end_of_dpowers                        mediumconst  006D30
__end_of_fifo_init                      text80       002064
__end_of_fifo_read                      text60       002F9C
__end_of_fifo_write                     text83       003BD6
__end_of_findNodes                      text25       0034D4
__end_of_getCANFrame                    text51       001E28
__end_of_getVSCPFrame                   text50       00289C
__end_of_hexStringToBytes               text3        002B76
__end_of_hexpowers                      mediumconst  006D50
__end_of_init                           text69       0020F6
__end_of_init_app_eeprom                text76       002926
__end_of_init_app_ram                   text78       00225C
__end_of_init_crc8                      text18       002552
__end_of_isdigit                        text59       001D78
__end_of_itoa                           text62       001E92
__end_of_main                           text0        003E98
__end_of_memcpy                         text11       0020B2
__end_of_memset                         text35       001DCA
__end_of_nibbleFromChar                 text4        002032
__end_of_octpowers                      mediumconst  006D08
__end_of_printBinary                    text22       0021C4
__end_of_printErrors                    text37       004F24
__end_of_printFirmwareVersion           text61       0029A8
__end_of_printGUID                      text27       003898
__end_of_printHelp                      text36       00418A
__end_of_printMDF                       text26       002ADC
__end_of_printMode                      text66       002632
__end_of_printNodeFirmwareVersion       text28       00308E
__end_of_printStatistics                text38       004312
__end_of_putsUSART                      text67       0022B0
__end_of_readEEPROM                     text79       001CCA
__end_of_readRegister                   text30       002CBE
__end_of_readRegisterExtended           text23       00315E
__end_of_receivePrintEventCANAL         text15       003D3E
__end_of_receivePrintEventSLCAN         text5        00461E
__end_of_receivePrintEventVerbose       text49       004C8A
__end_of_receiveVSCPModeCanalMsg        text10       0033EE
__end_of_sendCANFrame                   text32       001F3C
__end_of_sendEscapedUartData            text16       0025C0
__end_of_sendVSCPDriverAck              text12       002D74
__end_of_sendVSCPDriverCommandReply     text8        003698
__end_of_sendVSCPDriverErrorFrame       text13       00321C
__end_of_sendVSCPDriverNack             text9        002EE0
__end_of_sendVSCPFrame                  text31       002E30
__end_of_setFilter                      text20       004808
__end_of_sprintf                        text55       00593E
__end_of_strcat                         text29       002306
__end_of_strchr                         text43       0023BE
__end_of_strcpy                         text24       001DF8
__end_of_strcspn                        text41       00217E
__end_of_strichr                        text45       001FF4
__end_of_stristr                        text44       002796
__end_of_strlen                         text48       001F78
__end_of_strnicmp                       text46       002482
__end_of_strspn                         text42       00213A
__end_of_strtok                         text40       002A48
__end_of_toupper                        text47       001D06
__end_of_ultoa                          text6        0035A6
__end_of_utoa                           text63       002C16
__end_of_vscp_restoreDefaults           text75       001CA6
__end_of_writeEEPROM                    text77       001D9E
__end_of_writeRegisterExtended          text21       003310
__end_ofi1_WriteTimer0                  text82       001CB8
__initialization                        cinit        002482
__mediumconst                           mediumconst  006CD8
__pbssBANK0                             bssBANK0     0000CD
__pbssBANK1                             bssBANK1     000100
__pbssBANK2                             bssBANK2     000200
__pbssBANK3                             bssBANK3     000300
__pbssBIGRAM                            bssBIGRAM    000400
__pbssCOMRAM                            bssCOMRAM    000030
__pcinit                                cinit        002482
__pcstackBANK0                          cstackBANK0  000060
__pcstackBANK2                          cstackBANK2  000280
__pcstackCOMRAM                         cstackCOMRAM 000001
__pintcodelo                            intcodelo    000018
__pmediumconst                          mediumconst  006CD8
__pnvBANK0                              nvBANK0      0000E0
__ptext0                                text0        003D4C
__ptext1                                text1        001C9C
__ptext10                               text10       003310
__ptext11                               text11       002072
__ptext12                               text12       002CBE
__ptext13                               text13       00315E
__ptext14                               text14       001ECA
__ptext15                               text15       003C04
__ptext16                               text16       002552
__ptext17                               text17       001E92
__ptext18                               text18       0024E4
__ptext19                               text19       005A0A
__ptext2                                text2        004F24
__ptext20                               text20       00462C
__ptext21                               text21       003236
__ptext22                               text22       00217E
__ptext23                               text23       00308E
__ptext24                               text24       001DCA
__ptext25                               text25       0033EE
__ptext26                               text26       002A48
__ptext27                               text27       0037A6
__ptext28                               text28       002FBE
__ptext29                               text29       0022B0
__ptext3                                text3        002ADC
__ptext30                               text30       002C16
__ptext31                               text31       002D74
__ptext32                               text32       001F02
__ptext33                               text33       003E98
__ptext34                               text34       0038AC
__ptext35                               text35       001D9E
__ptext36                               text36       00400A
__ptext37                               text37       004C8A
__ptext38                               text38       00418A
__ptext39                               text39       0036A8
__ptext4                                text4        001FF4
__ptext40                               text40       0029B6
__ptext41                               text41       00213A
__ptext42                               text42       0020F6
__ptext43                               text43       002362
__ptext44                               text44       00271E
__ptext45                               text45       001FB6
__ptext46                               text46       002420
__ptext47                               text47       001CF0
__ptext48                               text48       001F3C
__ptext49                               text49       004A14
__ptext5                                text5        00449A
__ptext50                               text50       002818
__ptext51                               text51       001DF8
__ptext52                               text52       004808
__ptext53                               text53       0039C0
__ptext54                               text54       0026A8
__ptext55                               text55       0052BE
__ptext56                               text56       001E28
__ptext57                               text57       0023BE
__ptext58                               text58       002632
__ptext59                               text59       001D5A
__ptext6                                text6        0034D4
__ptext60                               text60       002EF0
__ptext61                               text61       002926
__ptext62                               text62       001E5A
__ptext63                               text63       002B76
__ptext64                               text64       001F78
__ptext65                               text65       0021C4
__ptext66                               text66       0025C0
__ptext67                               text67       00225C
__ptext68                               text68       001CDC
__ptext69                               text69       0020B2
__ptext7                                text7        004312
__ptext70                               text70       002796
__ptext71                               text71       001D06
__ptext72                               text72       001D3C
__ptext73                               text73       002306
__ptext74                               text74       001CCA
__ptext75                               text75       001C9E
__ptext76                               text76       00289C
__ptext77                               text77       001D78
__ptext78                               text78       00220E
__ptext79                               text79       001CB8
__ptext8                                text8        0035BA
__ptext80                               text80       002032
__ptext82                               text82       001CA6
__ptext83                               text83       003ADE
__ptext84                               text84       001D1E
__ptext9                                text9        002E30
__ramtop                                ramtop       000600
__size_of_ECANInitialize                (abs)        000000
__size_of_ECANReceiveMessage            (abs)        000000
__size_of_ECANSendMessage               (abs)        000000
__size_of_ECANSetOperationMode          (abs)        000000
__size_of_Interrupt                     (abs)        000000
__size_of_OpenTimer0                    (abs)        000000
__size_of_OpenUSART                     (abs)        000000
__size_of_ReadUSART                     (abs)        000000
__size_of_WriteTimer0                   (abs)        000000
__size_of_WriteUSART                    (abs)        000000
__size_of__CANIDToRegs                  (abs)        000000
__size_of__ECANPointBuffer              (abs)        000000
__size_of__RegsToCANID                  (abs)        000000
__size_of___lldiv                       (abs)        000000
__size_of___llmod                       (abs)        000000
__size_of___lwdiv                       (abs)        000000
__size_of___lwmod                       (abs)        000000
__size_of___wmul                        (abs)        000000
__size_of_atoi                          (abs)        000000
__size_of_calcCRC                       (abs)        000000
__size_of_crc8                          (abs)        000000
__size_of_doModeSLCAN                   (abs)        000000
__size_of_doModeVerbose                 (abs)        000000
__size_of_doModeVscp                    (abs)        000000
__size_of_doModeVscpNode                (abs)        000000
__size_of_fifo_init                     (abs)        000000
__size_of_fifo_read                     (abs)        000000
__size_of_fifo_write                    (abs)        000000
__size_of_findNodes                     (abs)        000000
__size_of_getCANFrame                   (abs)        000000
__size_of_getVSCPFrame                  (abs)        000000
__size_of_hexStringToBytes              (abs)        000000
__size_of_init                          (abs)        000000
__size_of_init_app_eeprom               (abs)        000000
__size_of_init_app_ram                  (abs)        000000
__size_of_init_crc8                     (abs)        000000
__size_of_isdigit                       (abs)        000000
__size_of_itoa                          (abs)        000000
__size_of_main                          (abs)        000000
__size_of_memcpy                        (abs)        000000
__size_of_memset                        (abs)        000000
__size_of_nibbleFromChar                (abs)        000000
__size_of_printBinary                   (abs)        000000
__size_of_printErrors                   (abs)        000000
__size_of_printFirmwareVersion          (abs)        000000
__size_of_printGUID                     (abs)        000000
__size_of_printHelp                     (abs)        000000
__size_of_printMDF                      (abs)        000000
__size_of_printMode                     (abs)        000000
__size_of_printNodeFirmwareVersion      (abs)        000000
__size_of_printStatistics               (abs)        000000
__size_of_putsUSART                     (abs)        000000
__size_of_readEEPROM                    (abs)        000000
__size_of_readRegister                  (abs)        000000
__size_of_readRegisterExtended          (abs)        000000
__size_of_receivePrintEventCANAL        (abs)        000000
__size_of_receivePrintEventSLCAN        (abs)        000000
__size_of_receivePrintEventVerbose      (abs)        000000
__size_of_receiveVSCPModeCanalMsg       (abs)        000000
__size_of_sendCANFrame                  (abs)        000000
__size_of_sendEscapedUartData           (abs)        000000
__size_of_sendVSCPDriverAck             (abs)        000000
__size_of_sendVSCPDriverCommandReply    (abs)        000000
__size_of_sendVSCPDriverErrorFrame      (abs)        000000
__size_of_sendVSCPDriverNack            (abs)        000000
__size_of_sendVSCPFrame                 (abs)        000000
__size_of_setFilter                     (abs)        000000
__size_of_sprintf                       (abs)        000000
__size_of_strcat                        (abs)        000000
__size_of_strchr                        (abs)        000000
__size_of_strcpy                        (abs)        000000
__size_of_strcspn                       (abs)        000000
__size_of_strichr                       (abs)        000000
__size_of_stristr                       (abs)        000000
__size_of_strlen                        (abs)        000000
__size_of_strnicmp                      (abs)        000000
__size_of_strspn                        (abs)        000000
__size_of_strtok                        (abs)        000000
__size_of_toupper                       (abs)        000000
__size_of_ultoa                         (abs)        000000
__size_of_utoa                          (abs)        000000
__size_of_vscp_restoreDefaults          (abs)        000000
__size_of_writeEEPROM                   (abs)        000000
__size_of_writeRegisterExtended         (abs)        000000
__size_ofi1_WriteTimer0                 (abs)        000000
__smallconst                            smallconst   000000
__stringdata                            mediumconst  006D50
_atoi                                   text39       0036A8
_bDLE                                   bssCOMRAM    00003B
_bHex                                   bssBANK0     0000D3
_bInitiated                             bssBANK0     0000D4
_bOpen                                  bssBANK0     0000D5
_bSilent                                bssBANK0     0000D6
_calcCRC                                text14       001ECA
_canInputFifo                           bssBANK1     0001C4
_can_receiveOverruns                    bssBANK1     000100
_can_transmitOverruns                   bssBANK1     000104
_caninputBuffer                         bssBIGRAM    000400
_cmdbuf                                 bssBANK1     000124
_cntRxBytes                             bssBANK1     000108
_cntRxFrames                            bssBANK1     00010C
_cntTxBytes                             bssBANK1     000110
_cntTxFrames                            bssBANK1     000114
_crc8                                   text17       001E92
_crc8_table                             bssBANK3     000300
_doModeSLCAN                            text2        004F24
_doModeVerbose                          text19       005A0A
_doModeVerbose$1136                     cstackBANK2  000294
_doModeVerbose$1148                     cstackBANK2  000296
_doModeVerbose$1153                     cstackBANK2  000298
_doModeVerbose$1159                     cstackBANK2  00029A
_doModeVerbose$1163                     cstackBANK2  00029C
_doModeVerbose$1188                     cstackBANK2  00029E
_doModeVscp                             text7        004312
_doModeVscpNode                         text1        001C9C
_dpowers                                mediumconst  006D08
_fifo_init                              text80       002032
_fifo_read                              text60       002EF0
_fifo_write                             text83       003ADE
_findNodes                              text25       0033EE
_findNodes$1464                         cstackBANK0  0000AD
_getCANFrame                            text51       001DF8
_getVSCPFrame                           text50       002818
_hexStringToBytes                       text3        002ADC
_hexpowers                              mediumconst  006D30
_init                                   text69       0020B2
_init_app_eeprom                        text76       00289C
_init_app_ram                           text78       00220E
_init_crc8                              text18       0024E4
_init_crc8$2079                         cstackCOMRAM 000019
_inputBuffer                            bssBANK2     000200
_isdigit                                text59       001D5A
_isdigit$2900                           cstackCOMRAM 00001A
_itoa                                   text62       001E5A
_ledFunctionality                       bssCOMRAM    00003C
_made_table                             bssBANK0     0000D1
_main                                   text0        003D4C
_memcpy                                 text11       002072
_memset                                 text35       001D9E
_mode                                   bssBANK0     0000D7
_nTimeStamp                             bssCOMRAM    00003D
_nibbleFromChar                         text4        001FF4
_octpowers                              mediumconst  006CD8
_pos                                    bssBANK0     0000D8
_printBinary                            text22       00217E
_printErrors                            text37       004C8A
_printErrors$1387                       cstackBANK0  00007E
_printErrors$1393                       cstackBANK0  000080
_printErrors$1399                       cstackBANK0  000082
_printErrors$1405                       cstackBANK0  000084
_printErrors$1411                       cstackBANK0  000086
_printErrors$1420                       cstackBANK0  000088
_printFirmwareVersion                   text61       002926
_printGUID                              text27       0037A6
_printHelp                              text36       00400A
_printMDF                               text26       002A48
_printMode                              text66       0025C0
_printNodeFirmwareVersion               text28       002FBE
_printStatistics                        text38       00418A
_printStatistics$1362                   cstackBANK0  00007E
_printStatistics$1368                   cstackBANK0  000080
_printStatistics$1374                   cstackBANK0  000082
_printStatistics$1380                   cstackBANK0  000084
_putsUSART                              text67       00225C
_readEEPROM                             text79       001CB8
_readRegister                           text30       002C16
_readRegisterExtended                   text23       00308E
_receivePrintEventCANAL                 text15       003C04
_receivePrintEventSLCAN                 text5        00449A
_receivePrintEventVerbose               text49       004A14
_receivePrintEventVerbose$1280          cstackBANK0  000083
_receivePrintEventVerbose$1285          cstackBANK0  000085
_receivePrintEventVerbose$1290          cstackBANK0  000087
_receivePrintEventVerbose$1295          cstackBANK0  000089
_receivePrintEventVerbose$1300          cstackBANK0  00008B
_receivePrintEventVerbose$1305          cstackBANK0  00008D
_receiveVSCPModeCanalMsg                text10       003310
_rwtimeout                              bssBANK0     0000D9
_sendCANFrame                           text32       001F02
_sendEscapedUartData                    text16       002552
_sendVSCPDriverAck                      text12       002CBE
_sendVSCPDriverCommandReply             text8        0035BA
_sendVSCPDriverErrorFrame               text13       00315E
_sendVSCPDriverNack                     text9        002E30
_sendVSCPFrame                          text31       002D74
_sequencyno                             bssCOMRAM    00003E
_serialInputFifo                        bssBANK1     0001CC
_setFilter                              text20       00462C
_sprintf                                text55       0052BE
_sprintf$2141                           cstackBANK0  00006C
_sprintf$2142                           cstackBANK0  00006E
_sprintf$2148                           cstackBANK0  000070
_stateVscpDriver                        bssCOMRAM    00003F
_status_led_cnt                         bssCOMRAM    000030
_strcat                                 text29       0022B0
_strchr                                 text43       002362
_strcpy                                 text24       001DCA
_strcspn                                text41       00213A
_strichr                                text45       001FB6
_stristr                                text44       00271E
_strlen                                 text48       001F3C
_strnicmp                               text46       002420
_strspn                                 text42       0020F6
_strtok                                 text40       0029B6
_timekeeper                             bssBANK0     0000CD
_timer                                  bssBANK1     000118
_toupper                                text47       001CF0
_uart_receiveOverruns                   bssBANK1     00011C
_uart_transmitOverruns                  bssBANK1     000120
_ultoa                                  text6        0034D4
_utoa                                   text63       002B76
_vscpClass                              bssBANK0     0000DA
_vscpData                               bssCOMRAM    000040
_vscpNodeId                             bssBANK0     0000DC
_vscpPriority                           bssBANK0     0000DD
_vscpSize                               bssBANK0     0000DE
_vscpType                               bssBANK0     0000DF
_vscp_restoreDefaults                   text75       001C9E
_writeEEPROM                            text77       001D78
_writeRegisterExtended                  text21       003236
_wrkbuf                                 bssBANK1     000174
atoi@a                                  cstackCOMRAM 000024
atoi@s                                  cstackCOMRAM 00001F
atoi@sign                               cstackCOMRAM 000023
calcCRC@crc                             cstackCOMRAM 000029
calcCRC@j                               cstackCOMRAM 000028
calcCRC@len                             cstackCOMRAM 000027
calcCRC@p                               cstackCOMRAM 000025
crc8@crc                                cstackCOMRAM 000020
crc8@m                                  cstackCOMRAM 000022
doModeSLCAN@c                           cstackBANK0  00008F
doModeSLCAN@dlc                         cstackBANK0  00008E
doModeSLCAN@id                          cstackBANK0  00008A
doModeSLCAN@rv                          cstackBANK0  000090
doModeVerbose@c                         cstackBANK2  0002AC
doModeVerbose@count                     cstackBANK2  0002AB
doModeVerbose@filter_class              cstackBANK2  000288
doModeVerbose@filter_nodeid             cstackBANK2  000290
doModeVerbose@filter_priority           cstackBANK2  00028E
doModeVerbose@filter_type               cstackBANK2  00028F
doModeVerbose@filterno                  cstackBANK2  0002A7
doModeVerbose@i                         cstackBANK2  0002A9
doModeVerbose@i_1118                    cstackBANK2  0002B0
doModeVerbose@id                        cstackBANK2  000280
doModeVerbose@id_1227                   cstackBANK2  0002A3
doModeVerbose@ifmode                    cstackBANK2  0002B6
doModeVerbose@mask_class                cstackBANK2  00028A
doModeVerbose@mask_nodeid               cstackBANK2  000293
doModeVerbose@mask_priority             cstackBANK2  000291
doModeVerbose@mask_type                 cstackBANK2  000292
doModeVerbose@maskno                    cstackBANK2  0002A8
doModeVerbose@nodeid                    cstackBANK2  00028C
doModeVerbose@nodeid_1168               cstackBANK2  00028D
doModeVerbose@nodeid_1183               cstackBANK2  0002AF
doModeVerbose@p                         cstackBANK2  0002B7
doModeVerbose@p_1124                    cstackBANK2  0002B2
doModeVerbose@p_1172                    cstackBANK2  0002B4
doModeVerbose@p_1196                    cstackBANK2  0002B9
doModeVerbose@p_1215                    cstackBANK2  0002BB
doModeVerbose@page                      cstackBANK2  0002AD
doModeVerbose@page_1169                 cstackBANK2  0002A1
doModeVerbose@preg                      cstackBANK2  000284
doModeVerbose@preg_1176                 cstackBANK2  000286
doModeVerbose@reg                       cstackBANK2  0002AE
doModeVerbose@reg_1170                  cstackBANK2  0002A2
doModeVerbose@rv                        cstackBANK2  0002A0
doModeVerbose@value                     cstackBANK2  0002B1
doModeVerbose@value_1171                cstackBANK2  0002AA
doModeVscp@c                            cstackCOMRAM 00002F
end_of_initialization                   cinit        0024DA
fifo_init@buf                           cstackCOMRAM 00001B
fifo_init@f                             cstackCOMRAM 000019
fifo_init@size                          cstackCOMRAM 00001D
fifo_read@buf                           cstackCOMRAM 00001B
fifo_read@f                             cstackCOMRAM 000019
fifo_read@i                             cstackCOMRAM 000025
fifo_read@nbytes                        cstackCOMRAM 00001D
fifo_read@p                             cstackCOMRAM 000023
fifo_write@buf                          cstackCOMRAM 000003
fifo_write@f                            cstackCOMRAM 000001
fifo_write@i                            cstackCOMRAM 00000D
fifo_write@nbytes                       cstackCOMRAM 000004
fifo_write@p                            cstackCOMRAM 00000C
findNodes@i                             cstackBANK0  0000B1
findNodes@nFound                        cstackBANK0  0000AF
findNodes@value                         cstackBANK0  0000B0
getCANFrame@flags                       cstackBANK0  000061
getCANFrame@pdata                       cstackCOMRAM 00002D
getCANFrame@pdlc                        cstackCOMRAM 00002C
getCANFrame@pid                         cstackBANK0  000060
getVSCPFrame@id                         cstackBANK0  00006C
getVSCPFrame@pData                      cstackBANK0  000066
getVSCPFrame@pNodeId                    cstackBANK0  000063
getVSCPFrame@pPriority                  cstackBANK0  000064
getVSCPFrame@pSize                      cstackBANK0  000065
getVSCPFrame@pvscpclass                 cstackBANK0  00006B
getVSCPFrame@pvscptype                  cstackBANK0  000062
hexStringToBytes@buf                    cstackCOMRAM 00001D
hexStringToBytes@i                      cstackCOMRAM 000029
hexStringToBytes@inhex                  cstackCOMRAM 000020
hexStringToBytes@len                    cstackCOMRAM 000025
hexStringToBytes@p                      cstackCOMRAM 000027
hexStringToBytes@size                   cstackCOMRAM 00001F
i1WriteTimer0@timer                     cstackCOMRAM 000003
i1WriteTimer0@timer0                    cstackCOMRAM 000001
i1_WriteTimer0                          text82       001CA6
init_app_eeprom@i                       cstackCOMRAM 00001C
init_crc8@crc                           cstackCOMRAM 00001D
init_crc8@i                             cstackCOMRAM 00001E
init_crc8@j                             cstackCOMRAM 00001B
intlevel0                               text         000000
intlevel1                               text         000000
intlevel2                               text         000000
intlevel3                               text         000000
isdigit@c                               cstackCOMRAM 00001B
itoa@base                               cstackCOMRAM 00002D
itoa@buf                                cstackCOMRAM 000029
itoa@val                                cstackCOMRAM 00002B
main@c                                  cstackBANK0  0000CC
memcpy@d                                cstackCOMRAM 00001F
memcpy@d1                               cstackCOMRAM 000019
memcpy@n                                cstackCOMRAM 00001D
memcpy@s                                cstackCOMRAM 000021
memcpy@s1                               cstackCOMRAM 00001B
memset@c                                cstackCOMRAM 00001B
memset@n                                cstackCOMRAM 00001D
memset@p                                cstackCOMRAM 00001F
memset@p1                               cstackCOMRAM 000019
nibbleFromChar@c                        cstackCOMRAM 000019
printBinary@i                           cstackCOMRAM 00001D
printBinary@value                       cstackCOMRAM 00001C
printFirmwareVersion@wrkbuf             cstackBANK0  000062
printGUID@buf                           cstackBANK0  0000A8
printGUID@i                             cstackBANK0  0000AC
printGUID@nodeid                        cstackBANK0  0000A7
printGUID@value                         cstackBANK0  0000AB
printMDF@i                              cstackBANK0  0000AB
printMDF@nodeid                         cstackBANK0  0000A7
printMDF@p                              cstackBANK0  0000A9
printMDF@value                          cstackBANK0  0000A8
printNodeFirmwareVersion@buf            cstackBANK0  0000A8
printNodeFirmwareVersion@i              cstackBANK0  0000AC
printNodeFirmwareVersion@nodeid         cstackBANK0  0000A7
printNodeFirmwareVersion@value          cstackBANK0  0000AB
putsUSART@data                          cstackCOMRAM 00001A
readEEPROM@address                      cstackCOMRAM 000019
readEEPROM@data                         cstackCOMRAM 00001B
readRegister@nodeid                     cstackBANK0  0000A6
readRegister@reg                        cstackBANK0  00009E
readRegister@timeout                    cstackBANK0  00009F
readRegister@value                      cstackBANK0  0000A1
readRegisterExtended@nodeid             cstackBANK0  0000A9
readRegisterExtended@page               cstackBANK0  00009E
readRegisterExtended@reg                cstackBANK0  0000A0
readRegisterExtended@timeout            cstackBANK0  0000A1
readRegisterExtended@value              cstackBANK0  0000A3
receivePrintEventCANAL@crc              cstackBANK0  000070
receivePrintEventCANAL@data             cstackBANK0  000062
receivePrintEventCANAL@dlc              cstackBANK0  00006B
receivePrintEventCANAL@i                cstackBANK0  00006A
receivePrintEventCANAL@id               cstackBANK0  00006C
receivePrintEventSLCAN@dlc              cstackBANK0  000070
receivePrintEventSLCAN@i                cstackBANK0  000071
receivePrintEventSLCAN@id               cstackBANK0  000073
receivePrintEventVerbose@i              cstackBANK0  00008F
receiveVSCPModeCanalMsg@data            cstackBANK0  000097
receiveVSCPModeCanalMsg@dlc             cstackBANK0  0000A3
receiveVSCPModeCanalMsg@id              cstackBANK0  00009F
sendCANFrame@dlc                        cstackBANK0  000080
sendCANFrame@id                         cstackBANK0  00007C
sendCANFrame@pdata                      cstackBANK0  000081
sendEscapedUartData@c                   cstackCOMRAM 000027
sendEscapedUartData@pcrc                cstackCOMRAM 000025
sendVSCPDriverAck@crc                   cstackCOMRAM 000028
sendVSCPDriverCommandReply@cmdCode      cstackCOMRAM 000028
sendVSCPDriverCommandReply@cmdReplyCode cstackCOMRAM 000029
sendVSCPDriverCommandReply@crc          cstackCOMRAM 00002A
sendVSCPDriverErrorFrame@crc            cstackCOMRAM 000029
sendVSCPDriverErrorFrame@errorcode      cstackCOMRAM 000028
sendVSCPDriverNack@crc                  cstackCOMRAM 000028
sendVSCPFrame@id                        cstackCOMRAM 00002C
sendVSCPFrame@nodeid                    cstackBANK0  000086
sendVSCPFrame@pData                     cstackBANK0  000089
sendVSCPFrame@priority                  cstackBANK0  000087
sendVSCPFrame@size                      cstackBANK0  000088
sendVSCPFrame@vscpclass                 cstackBANK0  000083
sendVSCPFrame@vscptype                  cstackBANK0  000085
setFilter@eidh                          cstackCOMRAM 000026
setFilter@eidl                          cstackCOMRAM 000027
setFilter@filter                        cstackCOMRAM 000023
setFilter@sidh                          cstackCOMRAM 000024
setFilter@sidl                          cstackCOMRAM 000025
setFilter@val                           cstackCOMRAM 000019
sprintf@_val                            cstackBANK0  000077
sprintf@ap                              cstackBANK0  000072
sprintf@c                               cstackBANK0  00007B
sprintf@f                               cstackBANK0  000062
sprintf@flag                            cstackBANK0  00007C
sprintf@idx                             cstackBANK0  00006B
sprintf@prec                            cstackBANK0  000073
sprintf@sp                              cstackBANK0  000060
sprintf@width                           cstackBANK0  000075
start                                   init         0001A8
start_initialization                    cinit        002482
strcat@cp                               cstackCOMRAM 00001D
strcat@from                             cstackCOMRAM 00001B
strcat@to                               cstackCOMRAM 000019
strchr@chr                              cstackCOMRAM 00001B
strchr@ptr                              cstackCOMRAM 000019
strcpy@cp                               cstackCOMRAM 00001D
strcpy@from                             cstackCOMRAM 00001B
strcpy@to                               cstackCOMRAM 000019
strcspn@i                               cstackCOMRAM 000023
strcspn@s1                              cstackCOMRAM 00001F
strcspn@s2                              cstackCOMRAM 000021
strichr@chr                             cstackCOMRAM 00001C
strichr@ptr                             cstackCOMRAM 00001A
stristr@s1                              cstackCOMRAM 000026
stristr@s2                              cstackCOMRAM 000028
strlen@cp                               cstackCOMRAM 00001B
strlen@s                                cstackCOMRAM 000019
strnicmp@len                            cstackCOMRAM 000021
strnicmp@r                              cstackCOMRAM 000025
strnicmp@s1                             cstackCOMRAM 00001D
strnicmp@s2                             cstackCOMRAM 00001F
strspn@i                                cstackCOMRAM 000023
strspn@s1                               cstackCOMRAM 00001F
strspn@s2                               cstackCOMRAM 000021
strtok@s1                               cstackCOMRAM 000025
strtok@s2                               cstackCOMRAM 000027
strtok@sp                               bssCOMRAM    000032
toupper@c                               cstackCOMRAM 000019
ultoa@base                              cstackBANK0  000066
ultoa@buf                               cstackBANK0  000060
ultoa@c                                 cstackBANK0  00006C
ultoa@v                                 cstackBANK0  000068
ultoa@val                               cstackBANK0  000062
utoa@base                               cstackCOMRAM 000024
utoa@buf                                cstackCOMRAM 000020
utoa@c                                  cstackCOMRAM 000028
utoa@v                                  cstackCOMRAM 000026
utoa@val                                cstackCOMRAM 000022
writeEEPROM@address                     cstackCOMRAM 000019
writeEEPROM@data                        cstackCOMRAM 00001B
writeRegisterExtended@nodeid            cstackBANK0  0000A9
writeRegisterExtended@page              cstackBANK0  00009E
writeRegisterExtended@reg               cstackBANK0  0000A0
writeRegisterExtended@timeout           cstackBANK0  0000A1
writeRegisterExtended@value             cstackBANK0  0000A3


FUNCTION INFORMATION:

 *************** function _main *****************
 Defined at:
		line 129 in file "main.c"
 Parameters:    Size  Location     Type
  argc            2  102[BANK0 ] int 
  argv            3  104[BANK0 ] PTR PTR unsigned char 
 Auto vars:     Size  Location     Type
  c               1  108[BANK0 ] unsigned char 
 Return value:  Size  Location     Type
                  2  102[BANK0 ] int 
 Registers used:
		wreg, fsr0l, fsr0h, fsr1l, fsr1h, fsr1l, fsr1h, fsr2l, fsr2h, status,2, status,0, pclat, btemp, btemp+1, btemp+2, btemp+3, btemp+4, btemp+5, btemp+6, btemp+7, tosl, structret, tblptrl, tblptrh, tblptru, prodl, prodh, bsr, cstack
 Tracked objects:
		On entry : 
		On exit  : 
		Unchanged: 
 Data sizes:     COMRAM   BANK0   BANK1   BANK2   BANK3   BANK4   BANK5
      Params:         0       5       0       0       0       0       0
      Locals:         0       1       0       0       0       0       0
      Temps:          0       1       0       0       0       0       0
      Totals:         0       7       0       0       0       0       0
Total ram usage:        7 bytes
 Hardware stack levels required when called:   10
 This function calls:
		_fifo_init
		_init_crc8
		_readEEPROM
		_vscp_restoreDefaults
		_init
		_putsUSART
		_printFirmwareVersion
		_printMode
		_fifo_read
		_doModeVerbose
		_doModeVscp
		_doModeSLCAN
		_doModeVscpNode
 This function is called by:
		Startup code after reset
 This function uses a non-reentrant model


 *************** function _doModeVscpNode *****************
 Defined at:
		line 1310 in file "main.c"
 Parameters:    Size  Location     Type
		None
 Auto vars:     Size  Location     Type
		None
 Return value:  Size  Location     Type
		None               void
 Registers used:
		None
 Tracked objects:
		On entry : 
		On exit  : 
		Unchanged: 
 Data sizes:     COMRAM   BANK0   BANK1   BANK2   BANK3   BANK4   BANK5
      Params:         0       0       0       0       0       0       0
      Locals:         0       0       0       0       0       0       0
      Temps:          0       0       0       0       0       0       0
      Totals:         0       0       0       0       0       0       0
Total ram usage:        0 bytes
 Hardware stack levels used:    1
 Hardware stack levels required when called:    2
 This function calls:
		Nothing
 This function is called by:
		_main
 This function uses a non-reentrant model


 *************** function _doModeSLCAN *****************
 Defined at:
		line 1110 in file "main.c"
 Parameters:    Size  Location     Type
		None
 Auto vars:     Size  Location     Type
  id              4   42[BANK0 ] unsigned long 
  dlc             1   46[BANK0 ] unsigned char 
  rv              1   48[BANK0 ] enum E15660
  c               1   47[BANK0 ] unsigned char 
 Return value:  Size  Location     Type
		None               void
 Registers used:
		wreg, fsr0l, fsr0h, fsr1l, fsr1h, fsr1l, fsr1h, fsr2l, fsr2h, status,2, status,0, pclat, btemp, btemp+1, btemp+2, btemp+3, btemp+4, btemp+5, btemp+6, btemp+7, tosl, structret, tblptrl, tblptrh, tblptru, prodl, prodh, bsr, cstack
 Tracked objects:
		On entry : 
		On exit  : 
		Unchanged: 
 Data sizes:     COMRAM   BANK0   BANK1   BANK2   BANK3   BANK4   BANK5
      Params:         0       0       0       0       0       0       0
      Locals:         0       7       0       0       0       0       0
      Temps:          0       7       0       0       0       0       0
      Totals:         0      14       0       0       0       0       0
Total ram usage:       14 bytes
 Hardware stack levels used:    1
 Hardware stack levels required when called:    6
 This function calls:
		_putsUSART
		_fifo_read
		_writeEEPROM
		_ECANSetOperationMode
		_memset
		_receivePrintEventSLCAN
		_strlen
		_hexStringToBytes
		_memcpy
		_sendCANFrame
 This function is called by:
		_main
 This function uses a non-reentrant model


 *************** function _hexStringToBytes *****************
 Defined at:
		line 31 in file "hexutils.c"
 Parameters:    Size  Location     Type
  buf             2   28[COMRAM] PTR unsigned char 
		 -> wrkbuf(80), 
  size            1   30[COMRAM] unsigned char 
  inhex           2   31[COMRAM] PTR unsigned char 
		 -> cmdbuf(80), 
 Auto vars:     Size  Location     Type
  i               2   40[COMRAM] int 
  p               2   38[COMRAM] PTR unsigned char 
		 -> cmdbuf(80), 
  len             2   36[COMRAM] int 
 Return value:  Size  Location     Type
                  1    wreg      unsigned char 
 Registers used:
		wreg, fsr0l, fsr0h, fsr1l, fsr1h, fsr2l, fsr2h, status,2, status,0, tblptrl, tblptrh, tblptru, cstack
 Tracked objects:
		On entry : 
		On exit  : 
		Unchanged: 
 Data sizes:     COMRAM   BANK0   BANK1   BANK2   BANK3   BANK4   BANK5
      Params:         5       0       0       0       0       0       0
      Locals:         6       0       0       0       0       0       0
      Temps:          3       0       0       0       0       0       0
      Totals:        14       0       0       0       0       0       0
Total ram usage:       14 bytes
 Hardware stack levels used:    1
 Hardware stack levels required when called:    3
 This function calls:
		_strlen
		_nibbleFromChar
 This function is called by:
		_doModeSLCAN
 This function uses a non-reentrant model


 *************** function _nibbleFromChar *****************
 Defined at:
		line 16 in file "hexutils.c"
 Parameters:    Size  Location     Type
  c               1    wreg     unsigned char 
 Auto vars:     Size  Location     Type
  c               1   24[COMRAM] unsigned char 
 Return value:  Size  Location     Type
                  1    wreg      unsigned char 
 Registers used:
		wreg, status,2, status,0
 Tracked objects:
		On entry : 
		On exit  : 
		Unchanged: 
 Data sizes:     COMRAM   BANK0   BANK1   BANK2   BANK3   BANK4   BANK5
      Params:         0       0       0       0       0       0       0
      Locals:         1       0       0       0       0       0       0
      Temps:          0       0       0       0       0       0       0
      Totals:         1       0       0       0       0       0       0
Total ram usage:        1 bytes
 Hardware stack levels used:    1
 Hardware stack levels required when called:    2
 This function calls:
		Nothing
 This function is called by:
		_hexStringToBytes
 This function uses a non-reentrant model


 *************** function _receivePrintEventSLCAN *****************
 Defined at:
		line 1737 in file "main.c"
 Parameters:    Size  Location     Type
		None
 Auto vars:     Size  Location     Type
  id              4   19[BANK0 ] unsigned long 
  i               2   17[BANK0 ] int 
  dlc             1   16[BANK0 ] unsigned char 
 Return value:  Size  Location     Type
                  1    wreg      enum E15660
 Registers used:
		wreg, fsr0l, fsr0h, fsr1l, fsr1h, fsr2l, fsr2h, status,2, status,0, tblptrl, tblptrh, tblptru, cstack
 Tracked objects:
		On entry : 
		On exit  : 
		Unchanged: 
 Data sizes:     COMRAM   BANK0   BANK1   BANK2   BANK3   BANK4   BANK5
      Params:         0       0       0       0       0       0       0
      Locals:         0       7       0       0       0       0       0
      Temps:          0       3       0       0       0       0       0
      Totals:         0      10       0       0       0       0       0
Total ram usage:       10 bytes
 Hardware stack levels used:    1
 Hardware stack levels required when called:    5
 This function calls:
		_putsUSART
		_WriteUSART
		_strlen
		_getCANFrame
		_ultoa
		_itoa
 This function is called by:
		_doModeSLCAN
 This function uses a non-reentrant model


 *************** function _ultoa *****************
 Defined at:
		line 34 in file "C:\Program Files (x86)\Microchip\xc8\v1.21\sources\common\ltoa.c"
 Parameters:    Size  Location     Type
  buf             2    0[BANK0 ] PTR unsigned char 
		 -> wrkbuf(80), 
  val             4    2[BANK0 ] unsigned long 
  base            2    6[BANK0 ] int 
 Auto vars:     Size  Location     Type
  v               4    8[BANK0 ] unsigned long 
  c               1   12[BANK0 ] unsigned char 
 Return value:  Size  Location     Type
                  2    0[BANK0 ] PTR unsigned char 
 Registers used:
		wreg, fsr2l, fsr2h, status,2, status,0, cstack
 Tracked objects:
		On entry : 
		On exit  : 
		Unchanged: 
 Data sizes:     COMRAM   BANK0   BANK1   BANK2   BANK3   BANK4   BANK5
      Params:         0       8       0       0       0       0       0
      Locals:         0       5       0       0       0       0       0
      Temps:          0       0       0       0       0       0       0
      Totals:         0      13       0       0       0       0       0
Total ram usage:       13 bytes
 Hardware stack levels used:    1
 Hardware stack levels required when called:    3
 This function calls:
		___lldiv
		___llmod
 This function is called by:
		_receivePrintEventSLCAN
 This function uses a non-reentrant model


 *************** function _doModeVscp *****************
 Defined at:
		line 945 in file "main.c"
 Parameters:    Size  Location     Type
		None
 Auto vars:     Size  Location     Type
  c               1   46[COMRAM] unsigned char 
 Return value:  Size  Location     Type
		None               void
 Registers used:
		wreg, fsr0l, fsr0h, fsr1l, fsr1h, fsr1l, fsr1h, fsr2l, fsr2h, status,2, status,0, pclat, btemp, btemp+1, btemp+2, btemp+3, btemp+4, btemp+5, btemp+6, btemp+7, tosl, structret, tblptrl, tblptrh, tblptru, prodl, prodh, bsr, cstack
 Tracked objects:
		On entry : 
		On exit  : 
		Unchanged: 
 Data sizes:     COMRAM   BANK0   BANK1   BANK2   BANK3   BANK4   BANK5
      Params:         0       0       0       0       0       0       0
      Locals:         1       0       0       0       0       0       0
      Temps:          0       0       0       0       0       0       0
      Totals:         1       0       0       0       0       0       0
Total ram usage:        1 bytes
 Hardware stack levels used:    1
 Hardware stack levels required when called:    6
 This function calls:
		_fifo_read
		_ECANSetOperationMode
		_receivePrintEventCANAL
		_calcCRC
		_sendVSCPDriverErrorFrame
		_sendVSCPDriverAck
		_receiveVSCPModeCanalMsg
		_sendVSCPDriverNack
		_sendVSCPDriverCommandReply
 This function is called by:
		_main
 This function uses a non-reentrant model


 *************** function _sendVSCPDriverCommandReply *****************
 Defined at:
		line 1477 in file "main.c"
 Parameters:    Size  Location     Type
  cmdReplyCode    1    wreg     unsigned char 
  cmdCode         1   39[COMRAM] unsigned char 
 Auto vars:     Size  Location     Type
  cmdReplyCode    1   40[COMRAM] unsigned char 
  crc             1   41[COMRAM] unsigned char 
 Return value:  Size  Location     Type
		None               void
 Registers used:
		wreg, fsr1l, fsr1h, fsr2l, fsr2h, status,2, status,0, cstack
 Tracked objects:
		On entry : 
		On exit  : 
		Unchanged: 
 Data sizes:     COMRAM   BANK0   BANK1   BANK2   BANK3   BANK4   BANK5
      Params:         1       0       0       0       0       0       0
      Locals:         2       0       0       0       0       0       0
      Temps:          0       0       0       0       0       0       0
      Totals:         3       0       0       0       0       0       0
Total ram usage:        3 bytes
 Hardware stack levels used:    1
 Hardware stack levels required when called:    5
 This function calls:
		_WriteUSART
		_sendEscapedUartData
		_crc8
 This function is called by:
		_doModeVscp
 This function uses a non-reentrant model


 *************** function _sendVSCPDriverNack *****************
 Defined at:
		line 1433 in file "main.c"
 Parameters:    Size  Location     Type
		None
 Auto vars:     Size  Location     Type
  crc             1   39[COMRAM] unsigned char 
 Return value:  Size  Location     Type
		None               void
 Registers used:
		wreg, fsr1l, fsr1h, fsr2l, fsr2h, status,2, status,0, cstack
 Tracked objects:
		On entry : 
		On exit  : 
		Unchanged: 
 Data sizes:     COMRAM   BANK0   BANK1   BANK2   BANK3   BANK4   BANK5
      Params:         0       0       0       0       0       0       0
      Locals:         1       0       0       0       0       0       0
      Temps:          0       0       0       0       0       0       0
      Totals:         1       0       0       0       0       0       0
Total ram usage:        1 bytes
 Hardware stack levels used:    1
 Hardware stack levels required when called:    5
 This function calls:
		_WriteUSART
		_sendEscapedUartData
		_crc8
 This function is called by:
		_doModeVscp
 This function uses a non-reentrant model


 *************** function _receiveVSCPModeCanalMsg *****************
 Defined at:
		line 1798 in file "main.c"
 Parameters:    Size  Location     Type
		None
 Auto vars:     Size  Location     Type
  data            8   55[BANK0 ] unsigned char [8]
  id              4   63[BANK0 ] unsigned long 
  dlc             1   67[BANK0 ] unsigned char 
 Return value:  Size  Location     Type
                  1    wreg      enum E15660
 Registers used:
		wreg, fsr1l, fsr1h, fsr2l, fsr2h, status,2, status,0, prodl, prodh, cstack
 Tracked objects:
		On entry : 
		On exit  : 
		Unchanged: 
 Data sizes:     COMRAM   BANK0   BANK1   BANK2   BANK3   BANK4   BANK5
      Params:         0       0       0       0       0       0       0
      Locals:         0      13       0       0       0       0       0
      Temps:          0      20       0       0       0       0       0
      Totals:         0      33       0       0       0       0       0
Total ram usage:       33 bytes
 Hardware stack levels used:    1
 Hardware stack levels required when called:    5
 This function calls:
		_memcpy
		_sendCANFrame
 This function is called by:
		_doModeVscp
 This function uses a non-reentrant model


 *************** function _memcpy *****************
 Defined at:
		line 13 in file "C:\Program Files (x86)\Microchip\xc8\v1.21\sources\common\memcpy.c"
 Parameters:    Size  Location     Type
  d1              2   24[COMRAM] PTR void 
		 -> receiveVSCPModeCanalMsg@data(8), vscpData(8), 
  s1              2   26[COMRAM] PTR const void 
		 -> vscpData(8), cmdbuf(80), 
  n               2   28[COMRAM] unsigned int 
 Auto vars:     Size  Location     Type
  s               2   32[COMRAM] PTR const unsigned char 
		 -> vscpData(8), cmdbuf(80), 
  d               2   30[COMRAM] PTR unsigned char 
		 -> receiveVSCPModeCanalMsg@data(8), vscpData(8), 
 Return value:  Size  Location     Type
                  2   24[COMRAM] PTR void 
 Registers used:
		wreg, fsr1l, fsr1h, fsr2l, fsr2h, status,2, status,0
 Tracked objects:
		On entry : 
		On exit  : 
		Unchanged: 
 Data sizes:     COMRAM   BANK0   BANK1   BANK2   BANK3   BANK4   BANK5
      Params:         6       0       0       0       0       0       0
      Locals:         4       0       0       0       0       0       0
      Temps:          0       0       0       0       0       0       0
      Totals:        10       0       0       0       0       0       0
Total ram usage:       10 bytes
 Hardware stack levels used:    1
 Hardware stack levels required when called:    2
 This function calls:
		Nothing
 This function is called by:
		_doModeSLCAN
		_receiveVSCPModeCanalMsg
 This function uses a non-reentrant model


 *************** function _sendVSCPDriverAck *****************
 Defined at:
		line 1389 in file "main.c"
 Parameters:    Size  Location     Type
		None
 Auto vars:     Size  Location     Type
  crc             1   39[COMRAM] unsigned char 
 Return value:  Size  Location     Type
		None               void
 Registers used:
		wreg, fsr1l, fsr1h, fsr2l, fsr2h, status,2, status,0, cstack
 Tracked objects:
		On entry : 
		On exit  : 
		Unchanged: 
 Data sizes:     COMRAM   BANK0   BANK1   BANK2   BANK3   BANK4   BANK5
      Params:         0       0       0       0       0       0       0
      Locals:         1       0       0       0       0       0       0
      Temps:          0       0       0       0       0       0       0
      Totals:         1       0       0       0       0       0       0
Total ram usage:        1 bytes
 Hardware stack levels used:    1
 Hardware stack levels required when called:    5
 This function calls:
		_WriteUSART
		_sendEscapedUartData
		_crc8
 This function is called by:
		_doModeVscp
 This function uses a non-reentrant model


 *************** function _sendVSCPDriverErrorFrame *****************
 Defined at:
		line 1342 in file "main.c"
 Parameters:    Size  Location     Type
  errorcode       1    wreg     unsigned char 
 Auto vars:     Size  Location     Type
  errorcode       1   39[COMRAM] unsigned char 
  crc             1   40[COMRAM] unsigned char 
 Return value:  Size  Location     Type
		None               void
 Registers used:
		wreg, fsr1l, fsr1h, fsr2l, fsr2h, status,2, status,0, cstack
 Tracked objects:
		On entry : 
		On exit  : 
		Unchanged: 
 Data sizes:     COMRAM   BANK0   BANK1   BANK2   BANK3   BANK4   BANK5
      Params:         0       0       0       0       0       0       0
      Locals:         2       0       0       0       0       0       0
      Temps:          0       0       0       0       0       0       0
      Totals:         2       0       0       0       0       0       0
Total ram usage:        2 bytes
 Hardware stack levels used:    1
 Hardware stack levels required when called:    5
 This function calls:
		_WriteUSART
		_sendEscapedUartData
		_crc8
 This function is called by:
		_doModeVscp
 This function uses a non-reentrant model


 *************** function _calcCRC *****************
 Defined at:
		line 2015 in file "main.c"
 Parameters:    Size  Location     Type
  p               2   36[COMRAM] PTR unsigned char 
		 -> cmdbuf(80), 
  len             1   38[COMRAM] unsigned char 
 Auto vars:     Size  Location     Type
  crc             1   40[COMRAM] unsigned char 
  j               1   39[COMRAM] unsigned char 
 Return value:  Size  Location     Type
                  1    wreg      unsigned char 
 Registers used:
		wreg, fsr1l, fsr1h, fsr2l, fsr2h, status,2, status,0, cstack
 Tracked objects:
		On entry : 
		On exit  : 
		Unchanged: 
 Data sizes:     COMRAM   BANK0   BANK1   BANK2   BANK3   BANK4   BANK5
      Params:         3       0       0       0       0       0       0
      Locals:         2       0       0       0       0       0       0
      Temps:          0       0       0       0       0       0       0
      Totals:         5       0       0       0       0       0       0
Total ram usage:        5 bytes
 Hardware stack levels used:    1
 Hardware stack levels required when called:    4
 This function calls:
		_crc8
 This function is called by:
		_doModeVscp
 This function uses a non-reentrant model


 *************** function _receivePrintEventCANAL *****************
 Defined at:
		line 1582 in file "main.c"
 Parameters:    Size  Location     Type
		None
 Auto vars:     Size  Location     Type
  crc             1   16[BANK0 ] unsigned char 
  data            8    2[BANK0 ] unsigned char [8]
  id              4   12[BANK0 ] unsigned long 
  dlc             1   11[BANK0 ] unsigned char 
  i               1   10[BANK0 ] unsigned char 
 Return value:  Size  Location     Type
                  1    wreg      enum E15660
 Registers used:
		wreg, fsr1l, fsr1h, fsr2l, fsr2h, status,2, status,0, cstack
 Tracked objects:
		On entry : 
		On exit  : 
		Unchanged: 
 Data sizes:     COMRAM   BANK0   BANK1   BANK2   BANK3   BANK4   BANK5
      Params:         0       0       0       0       0       0       0
      Locals:         0      15       0       0       0       0       0
      Temps:          0       0       0       0       0       0       0
      Totals:         0      15       0       0       0       0       0
Total ram usage:       15 bytes
 Hardware stack levels used:    1
 Hardware stack levels required when called:    5
 This function calls:
		_WriteUSART
		_sendEscapedUartData
		_crc8
		_getCANFrame
 This function is called by:
		_doModeVscp
 This function uses a non-reentrant model


 *************** function _sendEscapedUartData *****************
 Defined at:
		line 1318 in file "main.c"
 Parameters:    Size  Location     Type
  c               1    wreg     unsigned char 
  pcrc            2   36[COMRAM] PTR unsigned char 
		 -> sendReceiveEventVSCP@crc(1), receivePrintEventCANAL@crc(1), sendVSCPDriverCommandReply@crc(1), sendVSCPDriverNack@crc(1), 
		 -> sendVSCPDriverAck@crc(1), sendVSCPDriverErrorFrame@crc(1), NULL(0), 
 Auto vars:     Size  Location     Type
  c               1   38[COMRAM] unsigned char 
 Return value:  Size  Location     Type
		None               void
 Registers used:
		wreg, fsr1l, fsr1h, fsr2l, fsr2h, status,2, status,0, cstack
 Tracked objects:
		On entry : 
		On exit  : 
		Unchanged: 
 Data sizes:     COMRAM   BANK0   BANK1   BANK2   BANK3   BANK4   BANK5
      Params:         2       0       0       0       0       0       0
      Locals:         1       0       0       0       0       0       0
      Temps:          0       0       0       0       0       0       0
      Totals:         3       0       0       0       0       0       0
Total ram usage:        3 bytes
 Hardware stack levels used:    1
 Hardware stack levels required when called:    4
 This function calls:
		_WriteUSART
		_crc8
 This function is called by:
		_sendVSCPDriverErrorFrame
		_sendVSCPDriverAck
		_sendVSCPDriverNack
		_sendVSCPDriverCommandReply
		_receivePrintEventCANAL
 This function uses a non-reentrant model


 *************** function _crc8 *****************
 Defined at:
		line 47 in file "crc8.c"
 Parameters:    Size  Location     Type
  crc             2   31[COMRAM] PTR unsigned char 
		 -> calcCRC@crc(1), sendReceiveEventVSCP@crc(1), receivePrintEventCANAL@crc(1), sendVSCPDriverCommandReply@crc(1), 
		 -> sendVSCPDriverNack@crc(1), sendVSCPDriverAck@crc(1), sendVSCPDriverErrorFrame@crc(1), NULL(0), 
  m               1   33[COMRAM] unsigned char 
 Auto vars:     Size  Location     Type
		None
 Return value:  Size  Location     Type
		None               void
 Registers used:
		wreg, fsr1l, fsr1h, fsr2l, fsr2h, status,2, status,0, cstack
 Tracked objects:
		On entry : 
		On exit  : 
		Unchanged: 
 Data sizes:     COMRAM   BANK0   BANK1   BANK2   BANK3   BANK4   BANK5
      Params:         3       0       0       0       0       0       0
      Locals:         0       0       0       0       0       0       0
      Temps:          2       0       0       0       0       0       0
      Totals:         5       0       0       0       0       0       0
Total ram usage:        5 bytes
 Hardware stack levels used:    1
 Hardware stack levels required when called:    3
 This function calls:
		_init_crc8
 This function is called by:
		_sendEscapedUartData
		_sendVSCPDriverErrorFrame
		_sendVSCPDriverAck
		_sendVSCPDriverNack
		_sendVSCPDriverCommandReply
		_receivePrintEventCANAL
		_calcCRC
 This function uses a non-reentrant model


 *************** function _init_crc8 *****************
 Defined at:
		line 25 in file "crc8.c"
 Parameters:    Size  Location     Type
		None
 Auto vars:     Size  Location     Type
  i               2   29[COMRAM] int 
  j               2   26[COMRAM] int 
  crc             1   28[COMRAM] unsigned char 
 Return value:  Size  Location     Type
		None               void
 Registers used:
		wreg, fsr2l, fsr2h, status,2, status,0
 Tracked objects:
		On entry : 
		On exit  : 
		Unchanged: 
 Data sizes:     COMRAM   BANK0   BANK1   BANK2   BANK3   BANK4   BANK5
      Params:         0       0       0       0       0       0       0
      Locals:         7       0       0       0       0       0       0
      Temps:          0       0       0       0       0       0       0
      Totals:         7       0       0       0       0       0       0
Total ram usage:        7 bytes
 Hardware stack levels used:    1
 Hardware stack levels required when called:    2
 This function calls:
		Nothing
 This function is called by:
		_main
		_crc8
 This function uses a non-reentrant model


 *************** function _doModeVerbose *****************
 Defined at:
		line 411 in file "main.c"
 Parameters:    Size  Location     Type
		None
 Auto vars:     Size  Location     Type
  preg            2    6[BANK2 ] PTR unsigned char 
		 -> STR_104(2), STR_102(2), STR_100(2), STR_98(2), 
		 -> STR_95(2), STR_92(2), STR_90(2), STR_88(2), 
		 -> STR_86(2), STR_83(2), STR_73(2), STR_71(2), 
		 -> STR_69(2), STR_50(2), STR_48(2), STR_46(2), 
		 -> STR_34(2), STR_33(2), STR_32(2), STR_31(2), 
		 -> STR_30(2), NULL(0), STR_29(2), cmdbuf(80), 
  preg            2    4[BANK2 ] PTR unsigned char 
		 -> STR_104(2), STR_102(2), STR_100(2), STR_98(2), 
		 -> STR_95(2), STR_92(2), STR_90(2), STR_88(2), 
		 -> STR_86(2), STR_83(2), STR_73(2), STR_71(2), 
		 -> STR_69(2), STR_50(2), STR_48(2), STR_46(2), 
		 -> STR_34(2), STR_33(2), STR_32(2), STR_31(2), 
		 -> STR_30(2), NULL(0), STR_29(2), cmdbuf(80), 
  id              4   35[BANK2 ] unsigned long 
  p               2   59[BANK2 ] PTR unsigned char 
		 -> NULL(0), cmdbuf(80), 
  mask_class      2   10[BANK2 ] unsigned short 
  maskno          1   40[BANK2 ] unsigned char 
  mask_nodeid     1   19[BANK2 ] unsigned char 
  mask_type       1   18[BANK2 ] unsigned char 
  mask_priorit    1   17[BANK2 ] unsigned char 
  id              4    0[BANK2 ] unsigned long 
  p               2   57[BANK2 ] PTR unsigned char 
		 -> NULL(0), cmdbuf(80), 
  filter_class    2    8[BANK2 ] unsigned short 
  filterno        1   39[BANK2 ] unsigned char 
  filter_nodei    1   16[BANK2 ] unsigned char 
  filter_type     1   15[BANK2 ] unsigned char 
  filter_prior    1   14[BANK2 ] unsigned char 
  nodeid          1   47[BANK2 ] unsigned char 
  p               2   52[BANK2 ] PTR unsigned char 
		 -> NULL(0), cmdbuf(80), 
  value           1   42[BANK2 ] unsigned char 
  reg             1   34[BANK2 ] unsigned char 
  page            1   33[BANK2 ] unsigned char 
  nodeid          1   13[BANK2 ] unsigned char 
  p               2   50[BANK2 ] PTR unsigned char 
		 -> NULL(0), cmdbuf(80), 
  value           1   49[BANK2 ] unsigned char 
  i               1   48[BANK2 ] unsigned char 
  reg             1   46[BANK2 ] unsigned char 
  page            1   45[BANK2 ] unsigned char 
  count           1   43[BANK2 ] unsigned char 
  rv              1   32[BANK2 ] enum E15660
  nodeid          1   12[BANK2 ] unsigned char 
  p               2   55[BANK2 ] PTR unsigned char 
		 -> NULL(0), cmdbuf(80), 
  ifmode          1   54[BANK2 ] enum E16371
  c               1   44[BANK2 ] unsigned char 
  i               1   41[BANK2 ] unsigned char 
 Return value:  Size  Location     Type
		None               void
 Registers used:
		wreg, fsr0l, fsr0h, fsr1l, fsr1h, fsr1l, fsr1h, fsr2l, fsr2h, status,2, status,0, pclat, btemp, btemp+1, btemp+2, btemp+3, btemp+4, btemp+5, btemp+6, btemp+7, tosl, structret, tblptrl, tblptrh, tblptru, prodl, prodh, bsr, cstack
 Tracked objects:
		On entry : 
		On exit  : 
		Unchanged: 
 Data sizes:     COMRAM   BANK0   BANK1   BANK2   BANK3   BANK4   BANK5
      Params:         0       0       0       0       0       0       0
      Locals:         0       0       0      61       0       0       0
      Temps:          0      20       0       0       0       0       0
      Totals:         0      20       0      61       0       0       0
Total ram usage:       81 bytes
 Hardware stack levels used:    1
 Hardware stack levels required when called:    9
 This function calls:
		_putsUSART
		_printFirmwareVersion
		_fifo_read
		_writeEEPROM
		_receivePrintEventVerbose
		_stristr
		_ECANSetOperationMode
		_strtok
		_atoi
		_memset
		_sendVSCPFrame
		_printStatistics
		_printErrors
		_printHelp
		_findNodes
		_strcpy
		_strchr
		_readRegisterExtended
		_sprintf
		_WriteUSART
		_printBinary
		_writeRegisterExtended
		_printNodeFirmwareVersion
		_printGUID
		_printMDF
		_setFilter
		__CANIDToRegs
 This function is called by:
		_main
 This function uses a non-reentrant model


 *************** function _setFilter *****************
 Defined at:
		line 2393 in file "main.c"
 Parameters:    Size  Location     Type
  filter          1    wreg     unsigned char 
  val             4   24[COMRAM] unsigned long 
 Auto vars:     Size  Location     Type
  filter          1   34[COMRAM] unsigned char 
  eidl            1   38[COMRAM] unsigned char 
  eidh            1   37[COMRAM] unsigned char 
  sidl            1   36[COMRAM] unsigned char 
  sidh            1   35[COMRAM] unsigned char 
 Return value:  Size  Location     Type
		None               void
 Registers used:
		wreg, status,2, status,0
 Tracked objects:
		On entry : 
		On exit  : 
		Unchanged: 
 Data sizes:     COMRAM   BANK0   BANK1   BANK2   BANK3   BANK4   BANK5
      Params:         4       0       0       0       0       0       0
      Locals:         5       0       0       0       0       0       0
      Temps:          6       0       0       0       0       0       0
      Totals:        15       0       0       0       0       0       0
Total ram usage:       15 bytes
 Hardware stack levels used:    1
 Hardware stack levels required when called:    2
 This function calls:
		Nothing
 This function is called by:
		_doModeVerbose
 This function uses a non-reentrant model


 *************** function _writeRegisterExtended *****************
 Defined at:
		line 1965 in file "main.c"
 Parameters:    Size  Location     Type
  nodeid          1    wreg     unsigned char 
  page            2   62[BANK0 ] unsigned short 
  reg             1   64[BANK0 ] unsigned char 
  timeout         2   65[BANK0 ] unsigned short 
  value           2   67[BANK0 ] PTR unsigned char 
		 -> doModeVerbose@value_1171(1), 
 Auto vars:     Size  Location     Type
  nodeid          1   73[BANK0 ] unsigned char 
 Return value:  Size  Location     Type
                  1    wreg      enum E15660
 Registers used:
		wreg, fsr0l, fsr0h, fsr1l, fsr1h, fsr1l, fsr1h, fsr2l, fsr2h, status,2, status,0, pclat, btemp, btemp+1, btemp+2, btemp+3, btemp+4, btemp+5, btemp+6, btemp+7, tosl, structret, tblptrl, tblptrh, tblptru, prodl, prodh, bsr, cstack
 Tracked objects:
		On entry : 
		On exit  : 
		Unchanged: 
 Data sizes:     COMRAM   BANK0   BANK1   BANK2   BANK3   BANK4   BANK5
      Params:         0       7       0       0       0       0       0
      Locals:         0       1       0       0       0       0       0
      Temps:          0       4       0       0       0       0       0
      Totals:         0      12       0       0       0       0       0
Total ram usage:       12 bytes
 Hardware stack levels used:    1
 Hardware stack levels required when called:    6
 This function calls:
		_sendVSCPFrame
		_getVSCPFrame
 This function is called by:
		_doModeVerbose
 This function uses a non-reentrant model


 *************** function _printBinary *****************
 Defined at:
		line 2049 in file "main.c"
 Parameters:    Size  Location     Type
  value           1    wreg     unsigned char 
 Auto vars:     Size  Location     Type
  value           1   27[COMRAM] unsigned char 
  i               2   28[COMRAM] int 
 Return value:  Size  Location     Type
		None               void
 Registers used:
		wreg, status,2, status,0, cstack
 Tracked objects:
		On entry : 
		On exit  : 
		Unchanged: 
 Data sizes:     COMRAM   BANK0   BANK1   BANK2   BANK3   BANK4   BANK5
      Params:         0       0       0       0       0       0       0
      Locals:         3       0       0       0       0       0       0
      Temps:          2       0       0       0       0       0       0
      Totals:         5       0       0       0       0       0       0
Total ram usage:        5 bytes
 Hardware stack levels used:    1
 Hardware stack levels required when called:    3
 This function calls:
		_WriteUSART
 This function is called by:
		_doModeVerbose
 This function uses a non-reentrant model


 *************** function _readRegisterExtended *****************
 Defined at:
		line 1866 in file "main.c"
 Parameters:    Size  Location     Type
  nodeid          1    wreg     unsigned char 
  page            2   62[BANK0 ] unsigned short 
  reg             1   64[BANK0 ] unsigned char 
  timeout         2   65[BANK0 ] unsigned short 
  value           2   67[BANK0 ] PTR unsigned char 
		 -> doModeVerbose@value(1), 
 Auto vars:     Size  Location     Type
  nodeid          1   73[BANK0 ] unsigned char 
 Return value:  Size  Location     Type
                  1    wreg      enum E15660
 Registers used:
		wreg, fsr0l, fsr0h, fsr1l, fsr1h, fsr1l, fsr1h, fsr2l, fsr2h, status,2, status,0, pclat, btemp, btemp+1, btemp+2, btemp+3, btemp+4, btemp+5, btemp+6, btemp+7, tosl, structret, tblptrl, tblptrh, tblptru, prodl, prodh, bsr, cstack
 Tracked objects:
		On entry : 
		On exit  : 
		Unchanged: 
 Data sizes:     COMRAM   BANK0   BANK1   BANK2   BANK3   BANK4   BANK5
      Params:         0       7       0       0       0       0       0
      Locals:         0       1       0       0       0       0       0
      Temps:          0       4       0       0       0       0       0
      Totals:         0      12       0       0       0       0       0
Total ram usage:       12 bytes
 Hardware stack levels used:    1
 Hardware stack levels required when called:    6
 This function calls:
		_sendVSCPFrame
		_getVSCPFrame
 This function is called by:
		_doModeVerbose
 This function uses a non-reentrant model


 *************** function _strcpy *****************
 Defined at:
		line 10 in file "C:\Program Files (x86)\Microchip\xc8\v1.21\sources\common\strcpy.c"
 Parameters:    Size  Location     Type
  to              2   24[COMRAM] PTR unsigned char 
		 -> cmdbuf(80), 
  from            2   26[COMRAM] PTR const unsigned char 
		 -> cmdbuf(80), 
 Auto vars:     Size  Location     Type
  cp              2   28[COMRAM] PTR unsigned char 
		 -> cmdbuf(80), 
 Return value:  Size  Location     Type
                  2   24[COMRAM] PTR unsigned char 
 Registers used:
		wreg, fsr1l, fsr1h, fsr2l, fsr2h, status,2, status,0
 Tracked objects:
		On entry : 
		On exit  : 
		Unchanged: 
 Data sizes:     COMRAM   BANK0   BANK1   BANK2   BANK3   BANK4   BANK5
      Params:         4       0       0       0       0       0       0
      Locals:         2       0       0       0       0       0       0
      Temps:          0       0       0       0       0       0       0
      Totals:         6       0       0       0       0       0       0
Total ram usage:        6 bytes
 Hardware stack levels used:    1
 Hardware stack levels required when called:    2
 This function calls:
		Nothing
 This function is called by:
		_doModeVerbose
 This function uses a non-reentrant model


 *************** function _findNodes *****************
 Defined at:
		line 2203 in file "main.c"
 Parameters:    Size  Location     Type
		None
 Auto vars:     Size  Location     Type
  i               1   81[BANK0 ] unsigned char 
  value           1   80[BANK0 ] unsigned char 
  nFound          1   79[BANK0 ] unsigned char 
 Return value:  Size  Location     Type
		None               void
 Registers used:
		wreg, fsr0l, fsr0h, fsr1l, fsr1h, fsr1l, fsr1h, fsr2l, fsr2h, status,2, status,0, pclat, btemp, btemp+1, btemp+2, btemp+3, btemp+4, btemp+5, btemp+6, btemp+7, tosl, structret, tblptrl, tblptrh, tblptru, prodl, prodh, bsr, cstack
 Tracked objects:
		On entry : 
		On exit  : 
		Unchanged: 
 Data sizes:     COMRAM   BANK0   BANK1   BANK2   BANK3   BANK4   BANK5
      Params:         0       0       0       0       0       0       0
      Locals:         0       5       0       0       0       0       0
      Temps:          0       0       0       0       0       0       0
      Totals:         0       5       0       0       0       0       0
Total ram usage:        5 bytes
 Hardware stack levels used:    1
 Hardware stack levels required when called:    8
 This function calls:
		_putsUSART
		_printNodeFirmwareVersion
		_printGUID
		_printMDF
		_itoa
		_readRegister
 This function is called by:
		_doModeVerbose
 This function uses a non-reentrant model


 *************** function _printMDF *****************
 Defined at:
		line 2282 in file "main.c"
 Parameters:    Size  Location     Type
  nodeid          1    wreg     unsigned char 
 Auto vars:     Size  Location     Type
  nodeid          1   71[BANK0 ] unsigned char 
  p               2   73[BANK0 ] PTR unsigned char 
		 -> wrkbuf(80), 
  i               1   75[BANK0 ] unsigned char 
  value           1   72[BANK0 ] unsigned char 
 Return value:  Size  Location     Type
		None               void
 Registers used:
		wreg, fsr0l, fsr0h, fsr1l, fsr1h, fsr1l, fsr1h, fsr2l, fsr2h, status,2, status,0, pclat, btemp, btemp+1, btemp+2, btemp+3, btemp+4, btemp+5, btemp+6, btemp+7, tosl, structret, tblptrl, tblptrh, tblptru, prodl, prodh, bsr, cstack
 Tracked objects:
		On entry : 
		On exit  : 
		Unchanged: 
 Data sizes:     COMRAM   BANK0   BANK1   BANK2   BANK3   BANK4   BANK5
      Params:         0       0       0       0       0       0       0
      Locals:         0       5       0       0       0       0       0
      Temps:          0       0       0       0       0       0       0
      Totals:         0       5       0       0       0       0       0
Total ram usage:        5 bytes
 Hardware stack levels used:    1
 Hardware stack levels required when called:    7
 This function calls:
		_putsUSART
		_memset
		_readRegister
 This function is called by:
		_doModeVerbose
		_findNodes
 This function uses a non-reentrant model


 *************** function _printGUID *****************
 Defined at:
		line 2242 in file "main.c"
 Parameters:    Size  Location     Type
  nodeid          1    wreg     unsigned char 
 Auto vars:     Size  Location     Type
  nodeid          1   71[BANK0 ] unsigned char 
  buf             3   72[BANK0 ] unsigned char [3]
  i               1   76[BANK0 ] unsigned char 
  value           1   75[BANK0 ] unsigned char 
 Return value:  Size  Location     Type
		None               void
 Registers used:
		wreg, fsr0l, fsr0h, fsr1l, fsr1h, fsr1l, fsr1h, fsr2l, fsr2h, status,2, status,0, pclat, btemp, btemp+1, btemp+2, btemp+3, btemp+4, btemp+5, btemp+6, btemp+7, tosl, structret, tblptrl, tblptrh, tblptru, prodl, prodh, bsr, cstack
 Tracked objects:
		On entry : 
		On exit  : 
		Unchanged: 
 Data sizes:     COMRAM   BANK0   BANK1   BANK2   BANK3   BANK4   BANK5
      Params:         0       0       0       0       0       0       0
      Locals:         0       6       0       0       0       0       0
      Temps:          0       0       0       0       0       0       0
      Totals:         0       6       0       0       0       0       0
Total ram usage:        6 bytes
 Hardware stack levels used:    1
 Hardware stack levels required when called:    7
 This function calls:
		_putsUSART
		_memset
		_strlen
		_itoa
		_readRegister
		_strcat
 This function is called by:
		_doModeVerbose
		_findNodes
 This function uses a non-reentrant model


 *************** function _printNodeFirmwareVersion *****************
 Defined at:
		line 2311 in file "main.c"
 Parameters:    Size  Location     Type
  nodeid          1    wreg     unsigned char 
 Auto vars:     Size  Location     Type
  nodeid          1   71[BANK0 ] unsigned char 
  buf             3   72[BANK0 ] unsigned char [3]
  i               1   76[BANK0 ] unsigned char 
  value           1   75[BANK0 ] unsigned char 
 Return value:  Size  Location     Type
		None               void
 Registers used:
		wreg, fsr0l, fsr0h, fsr1l, fsr1h, fsr1l, fsr1h, fsr2l, fsr2h, status,2, status,0, pclat, btemp, btemp+1, btemp+2, btemp+3, btemp+4, btemp+5, btemp+6, btemp+7, tosl, structret, tblptrl, tblptrh, tblptru, prodl, prodh, bsr, cstack
 Tracked objects:
		On entry : 
		On exit  : 
		Unchanged: 
 Data sizes:     COMRAM   BANK0   BANK1   BANK2   BANK3   BANK4   BANK5
      Params:         0       0       0       0       0       0       0
      Locals:         0       6       0       0       0       0       0
      Temps:          0       0       0       0       0       0       0
      Totals:         0       6       0       0       0       0       0
Total ram usage:        6 bytes
 Hardware stack levels used:    1
 Hardware stack levels required when called:    7
 This function calls:
		_putsUSART
		_memset
		_itoa
		_readRegister
		_strcat
 This function is called by:
		_doModeVerbose
		_findNodes
 This function uses a non-reentrant model


 *************** function _strcat *****************
 Defined at:
		line 10 in file "C:\Program Files (x86)\Microchip\xc8\v1.21\sources\common\strcat.c"
 Parameters:    Size  Location     Type
  to              2   24[COMRAM] PTR unsigned char 
		 -> wrkbuf(80), 
  from            2   26[COMRAM] PTR const unsigned char 
		 -> STR_243(2), STR_242(2), printNodeFirmwareVersion@buf(3), STR_237(2), 
		 -> STR_236(3), STR_235(2), printGUID@buf(3), 
 Auto vars:     Size  Location     Type
  cp              2   28[COMRAM] PTR unsigned char 
		 -> wrkbuf(80), 
 Return value:  Size  Location     Type
                  2   24[COMRAM] PTR unsigned char 
 Registers used:
		wreg, fsr0l, fsr0h, fsr2l, fsr2h, status,2, status,0, tblptrl, tblptrh, tblptru
 Tracked objects:
		On entry : 
		On exit  : 
		Unchanged: 
 Data sizes:     COMRAM   BANK0   BANK1   BANK2   BANK3   BANK4   BANK5
      Params:         4       0       0       0       0       0       0
      Locals:         2       0       0       0       0       0       0
      Temps:          0       0       0       0       0       0       0
      Totals:         6       0       0       0       0       0       0
Total ram usage:        6 bytes
 Hardware stack levels used:    1
 Hardware stack levels required when called:    2
 This function calls:
		Nothing
 This function is called by:
		_printGUID
		_printNodeFirmwareVersion
 This function uses a non-reentrant model


 *************** function _readRegister *****************
 Defined at:
		line 1821 in file "main.c"
 Parameters:    Size  Location     Type
  nodeid          1    wreg     unsigned char 
  reg             1   62[BANK0 ] unsigned char 
  timeout         2   63[BANK0 ] unsigned short 
  value           1   65[BANK0 ] PTR unsigned char 
		 -> printNodeFirmwareVersion@value(1), printMDF@value(1), printGUID@value(1), findNodes@value(1), 
 Auto vars:     Size  Location     Type
  nodeid          1   70[BANK0 ] unsigned char 
 Return value:  Size  Location     Type
                  1    wreg      enum E15660
 Registers used:
		wreg, fsr1l, fsr1h, fsr2l, fsr2h, status,2, status,0, prodl, prodh, cstack
 Tracked objects:
		On entry : 
		On exit  : 
		Unchanged: 
 Data sizes:     COMRAM   BANK0   BANK1   BANK2   BANK3   BANK4   BANK5
      Params:         0       4       0       0       0       0       0
      Locals:         0       1       0       0       0       0       0
      Temps:          0       4       0       0       0       0       0
      Totals:         0       9       0       0       0       0       0
Total ram usage:        9 bytes
 Hardware stack levels used:    1
 Hardware stack levels required when called:    6
 This function calls:
		_sendVSCPFrame
		_getVSCPFrame
 This function is called by:
		_findNodes
		_printGUID
		_printMDF
		_printNodeFirmwareVersion
 This function uses a non-reentrant model


 *************** function _sendVSCPFrame *****************
 Defined at:
		line 2529 in file "main.c"
 Parameters:    Size  Location     Type
  vscpclass       2   35[BANK0 ] unsigned short 
  vscptype        1   37[BANK0 ] unsigned char 
  nodeid          1   38[BANK0 ] unsigned char 
  priority        1   39[BANK0 ] unsigned char 
  size            1   40[BANK0 ] unsigned char 
  pData           1   41[BANK0 ] PTR unsigned char 
		 -> vscpData(8), 
 Auto vars:     Size  Location     Type
  id              4   43[COMRAM] unsigned long 
 Return value:  Size  Location     Type
                  1    wreg      unsigned char 
 Registers used:
		wreg, fsr1l, fsr1h, fsr2l, fsr2h, status,2, status,0, prodl, prodh, cstack
 Tracked objects:
		On entry : 
		On exit  : 
		Unchanged: 
 Data sizes:     COMRAM   BANK0   BANK1   BANK2   BANK3   BANK4   BANK5
      Params:         0       7       0       0       0       0       0
      Locals:         4       0       0       0       0       0       0
      Temps:          0      20       0       0       0       0       0
      Totals:         4      27       0       0       0       0       0
Total ram usage:       31 bytes
 Hardware stack levels used:    1
 Hardware stack levels required when called:    5
 This function calls:
		_sendCANFrame
 This function is called by:
		_doModeVerbose
		_readRegister
		_readRegisterExtended
		_writeRegisterExtended
 This function uses a non-reentrant model


 *************** function _sendCANFrame *****************
 Defined at:
		line 2573 in file "main.c"
 Parameters:    Size  Location     Type
  id              4   28[BANK0 ] unsigned long 
  dlc             1   32[BANK0 ] unsigned char 
  pdata           2   33[BANK0 ] PTR unsigned char 
		 -> receiveVSCPModeCanalMsg@data(8), vscpData(8), 
 Auto vars:     Size  Location     Type
		None
 Return value:  Size  Location     Type
                  1    wreg      unsigned char 
 Registers used:
		wreg, fsr1l, fsr1h, fsr2l, fsr2h, status,2, status,0, prodl, prodh, cstack
 Tracked objects:
		On entry : 
		On exit  : 
		Unchanged: 
 Data sizes:     COMRAM   BANK0   BANK1   BANK2   BANK3   BANK4   BANK5
      Params:         0       7       0       0       0       0       0
      Locals:         0       0       0       0       0       0       0
      Temps:          0       0       0       0       0       0       0
      Totals:         0       7       0       0       0       0       0
Total ram usage:        7 bytes
 Hardware stack levels used:    1
 Hardware stack levels required when called:    4
 This function calls:
		_ECANSendMessage
 This function is called by:
		_doModeSLCAN
		_receiveVSCPModeCanalMsg
		_sendVSCPFrame
 This function uses a non-reentrant model


 *************** function _ECANSendMessage *****************
 Defined at:
		line 617 in file "ECAN.c"
 Parameters:    Size  Location     Type
  id              4   34[COMRAM] unsigned long 
  data            2   38[COMRAM] PTR unsigned char 
		 -> receiveVSCPModeCanalMsg@data(8), vscpData(8), 
  dataLen         1   40[COMRAM] unsigned char 
  msgFlags        1   41[COMRAM] enum E16315
 Auto vars:     Size  Location     Type
  pb             18    0[BANK0 ] PTR unsigned char [9]
		 -> TXB2CON(1), TXB1CON(1), TXB0CON(1), B5CON(1), 
		 -> B4CON(1), B3CON(1), B2CON(1), B1CON(1), 
		 -> B0CON(1), 
  ptr             2   26[BANK0 ] PTR unsigned char 
		 -> TXB2CON(1), TXB1CON(1), TXB0CON(1), B5CON(1), 
		 -> B4CON(1), B3CON(1), B2CON(1), B1CON(1), 
		 -> B0CON(1), 
  tempPtr         2   22[BANK0 ] PTR unsigned char 
		 -> TXB2CON(1), TXB1CON(1), TXB0CON(1), B5CON(1), 
		 -> B4CON(1), B3CON(1), B2CON(1), B1CON(1), 
		 -> B0CON(1), 
  i               1   25[BANK0 ] unsigned char 
  temp            1   24[BANK0 ] unsigned char 
  tempBSEL0       1   21[BANK0 ] struct .
  j               1   20[BANK0 ] unsigned char 
  buffers         1   19[BANK0 ] unsigned char 
  mode            1   18[BANK0 ] unsigned char 
 Return value:  Size  Location     Type
                  1    wreg      enum E15660
 Registers used:
		wreg, fsr1l, fsr1h, fsr2l, fsr2h, status,2, status,0, prodl, prodh, cstack
 Tracked objects:
		On entry : 
		On exit  : 
		Unchanged: 
 Data sizes:     COMRAM   BANK0   BANK1   BANK2   BANK3   BANK4   BANK5
      Params:         8       0       0       0       0       0       0
      Locals:         0      28       0       0       0       0       0
      Temps:          1       0       0       0       0       0       0
      Totals:         9      28       0       0       0       0       0
Total ram usage:       37 bytes
 Hardware stack levels used:    1
 Hardware stack levels required when called:    3
 This function calls:
		__CANIDToRegs
 This function is called by:
		_sendCANFrame
 This function uses a non-reentrant model


 *************** function __CANIDToRegs *****************
 Defined at:
		line 1099 in file "ECAN.c"
 Parameters:    Size  Location     Type
  ptr             2   24[COMRAM] PTR unsigned char 
		 -> TXB2CON(1), TXB1CON(1), TXB0CON(1), B5CON(1), 
		 -> B4CON(1), B3CON(1), B2CON(1), B1CON(1), 
		 -> B0CON(1), RXM1SIDH(1), RXM0SIDH(1), 
  val             4   26[COMRAM] unsigned long 
  type            1   30[COMRAM] unsigned char 
 Auto vars:     Size  Location     Type
  Value           1   33[COMRAM] PTR struct _CAN_MESSAGE_
		 -> _CANIDToRegs@val(4), 
 Return value:  Size  Location     Type
		None               void
 Registers used:
		wreg, fsr1l, fsr1h, fsr2l, fsr2h, status,2, status,0
 Tracked objects:
		On entry : 
		On exit  : 
		Unchanged: 
 Data sizes:     COMRAM   BANK0   BANK1   BANK2   BANK3   BANK4   BANK5
      Params:         7       0       0       0       0       0       0
      Locals:         1       0       0       0       0       0       0
      Temps:          2       0       0       0       0       0       0
      Totals:        10       0       0       0       0       0       0
Total ram usage:       10 bytes
 Hardware stack levels used:    1
 Hardware stack levels required when called:    2
 This function calls:
		Nothing
 This function is called by:
		_doModeVerbose
		_ECANSendMessage
 This function uses a non-reentrant model


 *************** function _memset *****************
 Defined at:
		line 10 in file "C:\Program Files (x86)\Microchip\xc8\v1.21\sources\common\memset.c"
 Parameters:    Size  Location     Type
  p1              2   24[COMRAM] PTR void 
		 -> wrkbuf(80), vscpData(8), cmdbuf(80), 
  c               2   26[COMRAM] int 
  n               2   28[COMRAM] unsigned int 
 Auto vars:     Size  Location     Type
  p               2   30[COMRAM] PTR unsigned char 
		 -> wrkbuf(80), vscpData(8), cmdbuf(80), 
 Return value:  Size  Location     Type
                  2   24[COMRAM] PTR void 
 Registers used:
		wreg, fsr2l, fsr2h, status,2, status,0
 Tracked objects:
		On entry : 
		On exit  : 
		Unchanged: 
 Data sizes:     COMRAM   BANK0   BANK1   BANK2   BANK3   BANK4   BANK5
      Params:         6       0       0       0       0       0       0
      Locals:         2       0       0       0       0       0       0
      Temps:          0       0       0       0       0       0       0
      Totals:         8       0       0       0       0       0       0
Total ram usage:        8 bytes
 Hardware stack levels used:    1
 Hardware stack levels required when called:    2
 This function calls:
		Nothing
 This function is called by:
		_doModeVerbose
		_doModeSLCAN
		_printGUID
		_printMDF
		_printNodeFirmwareVersion
 This function uses a non-reentrant model


 *************** function _printHelp *****************
 Defined at:
		line 2163 in file "main.c"
 Parameters:    Size  Location     Type
		None
 Auto vars:     Size  Location     Type
		None
 Return value:  Size  Location     Type
		None               void
 Registers used:
		wreg, fsr0l, fsr0h, status,2, status,0, tblptrl, tblptrh, tblptru, cstack
 Tracked objects:
		On entry : 
		On exit  : 
		Unchanged: 
 Data sizes:     COMRAM   BANK0   BANK1   BANK2   BANK3   BANK4   BANK5
      Params:         0       0       0       0       0       0       0
      Locals:         0       0       0       0       0       0       0
      Temps:          0       0       0       0       0       0       0
      Totals:         0       0       0       0       0       0       0
Total ram usage:        0 bytes
 Hardware stack levels used:    1
 Hardware stack levels required when called:    4
 This function calls:
		_putsUSART
 This function is called by:
		_doModeVerbose
 This function uses a non-reentrant model


 *************** function _printErrors *****************
 Defined at:
		line 2093 in file "main.c"
 Parameters:    Size  Location     Type
		None
 Auto vars:     Size  Location     Type
		None
 Return value:  Size  Location     Type
		None               void
 Registers used:
		wreg, fsr0l, fsr0h, fsr1l, fsr1h, fsr2l, fsr2h, status,2, status,0, tblptrl, tblptrh, tblptru, prodl, prodh, cstack
 Tracked objects:
		On entry : 
		On exit  : 
		Unchanged: 
 Data sizes:     COMRAM   BANK0   BANK1   BANK2   BANK3   BANK4   BANK5
      Params:         0       0       0       0       0       0       0
      Locals:         0      12       0       0       0       0       0
      Temps:          0       0       0       0       0       0       0
      Totals:         0      12       0       0       0       0       0
Total ram usage:       12 bytes
 Hardware stack levels used:    1
 Hardware stack levels required when called:    4
 This function calls:
		_putsUSART
		_sprintf
 This function is called by:
		_doModeVerbose
 This function uses a non-reentrant model


 *************** function _printStatistics *****************
 Defined at:
		line 2067 in file "main.c"
 Parameters:    Size  Location     Type
		None
 Auto vars:     Size  Location     Type
		None
 Return value:  Size  Location     Type
		None               void
 Registers used:
		wreg, fsr0l, fsr0h, fsr1l, fsr1h, fsr2l, fsr2h, status,2, status,0, tblptrl, tblptrh, tblptru, prodl, prodh, cstack
 Tracked objects:
		On entry : 
		On exit  : 
		Unchanged: 
 Data sizes:     COMRAM   BANK0   BANK1   BANK2   BANK3   BANK4   BANK5
      Params:         0       0       0       0       0       0       0
      Locals:         0       8       0       0       0       0       0
      Temps:          0       0       0       0       0       0       0
      Totals:         0       8       0       0       0       0       0
Total ram usage:        8 bytes
 Hardware stack levels used:    1
 Hardware stack levels required when called:    4
 This function calls:
		_putsUSART
		_sprintf
 This function is called by:
		_doModeVerbose
 This function uses a non-reentrant model


 *************** function _atoi *****************
 Defined at:
		line 6 in file "C:\Program Files (x86)\Microchip\xc8\v1.21\sources\common\atoi.c"
 Parameters:    Size  Location     Type
  s               2   30[COMRAM] PTR const unsigned char 
		 -> STR_104(2), STR_102(2), STR_100(2), STR_98(2), 
		 -> STR_95(2), STR_92(2), STR_90(2), STR_88(2), 
		 -> STR_86(2), STR_83(2), STR_73(2), STR_71(2), 
		 -> STR_69(2), STR_50(2), STR_48(2), STR_46(2), 
		 -> STR_34(2), STR_33(2), STR_32(2), STR_31(2), 
		 -> STR_30(2), NULL(0), STR_29(2), cmdbuf(80), 
 Auto vars:     Size  Location     Type
  a               2   35[COMRAM] int 
  sign            1   34[COMRAM] unsigned char 
 Return value:  Size  Location     Type
                  2   30[COMRAM] int 
 Registers used:
		wreg, fsr0l, fsr0h, status,2, status,0, tblptrl, tblptrh, tblptru, prodl, prodh, cstack
 Tracked objects:
		On entry : 
		On exit  : 
		Unchanged: 
 Data sizes:     COMRAM   BANK0   BANK1   BANK2   BANK3   BANK4   BANK5
      Params:         2       0       0       0       0       0       0
      Locals:         3       0       0       0       0       0       0
      Temps:          2       0       0       0       0       0       0
      Totals:         7       0       0       0       0       0       0
Total ram usage:        7 bytes
 Hardware stack levels used:    1
 Hardware stack levels required when called:    3
 This function calls:
		_isdigit
		___wmul
 This function is called by:
		_doModeVerbose
 This function uses a non-reentrant model


 *************** function _strtok *****************
 Defined at:
		line 11 in file "C:\Program Files (x86)\Microchip\xc8\v1.21\sources\common\strtok.c"
 Parameters:    Size  Location     Type
  s1              2   36[COMRAM] PTR unsigned char 
		 -> NULL(0), cmdbuf(80), 
  s2              2   38[COMRAM] PTR const unsigned char 
		 -> STR_104(2), STR_102(2), STR_100(2), STR_98(2), 
		 -> STR_95(2), STR_92(2), STR_90(2), STR_88(2), 
		 -> STR_86(2), STR_83(2), STR_73(2), STR_71(2), 
		 -> STR_69(2), STR_50(2), STR_48(2), STR_46(2), 
		 -> STR_34(2), STR_33(2), STR_32(2), STR_31(2), 
		 -> STR_30(2), STR_29(2), 
 Auto vars:     Size  Location     Type
		None
 Return value:  Size  Location     Type
                  2   36[COMRAM] PTR unsigned char 
 Registers used:
		wreg, fsr0l, fsr0h, fsr2l, fsr2h, status,2, status,0, tblptrl, tblptrh, tblptru, cstack
 Tracked objects:
		On entry : 
		On exit  : 
		Unchanged: 
 Data sizes:     COMRAM   BANK0   BANK1   BANK2   BANK3   BANK4   BANK5
      Params:         4       0       0       0       0       0       0
      Locals:         0       0       0       0       0       0       0
      Temps:          0       0       0       0       0       0       0
      Totals:         4       0       0       0       0       0       0
Total ram usage:        4 bytes
 Hardware stack levels used:    1
 Hardware stack levels required when called:    4
 This function calls:
		_strspn
		_strcspn
 This function is called by:
		_doModeVerbose
 This function uses a non-reentrant model


 *************** function _strcspn *****************
 Defined at:
		line 5 in file "C:\Program Files (x86)\Microchip\xc8\v1.21\sources\common\strcspn.c"
 Parameters:    Size  Location     Type
  s1              2   30[COMRAM] PTR const unsigned char 
		 -> NULL(0), cmdbuf(80), 
  s2              2   32[COMRAM] PTR const unsigned char 
		 -> STR_104(2), STR_102(2), STR_100(2), STR_98(2), 
		 -> STR_95(2), STR_92(2), STR_90(2), STR_88(2), 
		 -> STR_86(2), STR_83(2), STR_73(2), STR_71(2), 
		 -> STR_69(2), STR_50(2), STR_48(2), STR_46(2), 
		 -> STR_34(2), STR_33(2), STR_32(2), STR_31(2), 
		 -> STR_30(2), STR_29(2), 
 Auto vars:     Size  Location     Type
  i               2   34[COMRAM] unsigned int 
 Return value:  Size  Location     Type
                  2   30[COMRAM] unsigned int 
 Registers used:
		wreg, fsr0l, fsr0h, fsr2l, fsr2h, status,2, status,0, tblptrl, tblptrh, tblptru, cstack
 Tracked objects:
		On entry : 
		On exit  : 
		Unchanged: 
 Data sizes:     COMRAM   BANK0   BANK1   BANK2   BANK3   BANK4   BANK5
      Params:         4       0       0       0       0       0       0
      Locals:         2       0       0       0       0       0       0
      Temps:          0       0       0       0       0       0       0
      Totals:         6       0       0       0       0       0       0
Total ram usage:        6 bytes
 Hardware stack levels used:    1
 Hardware stack levels required when called:    3
 This function calls:
		_strchr
 This function is called by:
		_strtok
 This function uses a non-reentrant model


 *************** function _strspn *****************
 Defined at:
		line 5 in file "C:\Program Files (x86)\Microchip\xc8\v1.21\sources\common\strspn.c"
 Parameters:    Size  Location     Type
  s1              2   30[COMRAM] PTR const unsigned char 
		 -> NULL(0), cmdbuf(80), 
  s2              2   32[COMRAM] PTR const unsigned char 
		 -> STR_104(2), STR_102(2), STR_100(2), STR_98(2), 
		 -> STR_95(2), STR_92(2), STR_90(2), STR_88(2), 
		 -> STR_86(2), STR_83(2), STR_73(2), STR_71(2), 
		 -> STR_69(2), STR_50(2), STR_48(2), STR_46(2), 
		 -> STR_34(2), STR_33(2), STR_32(2), STR_31(2), 
		 -> STR_30(2), STR_29(2), 
 Auto vars:     Size  Location     Type
  i               2   34[COMRAM] unsigned int 
 Return value:  Size  Location     Type
                  2   30[COMRAM] unsigned int 
 Registers used:
		wreg, fsr0l, fsr0h, fsr2l, fsr2h, status,2, status,0, tblptrl, tblptrh, tblptru, cstack
 Tracked objects:
		On entry : 
		On exit  : 
		Unchanged: 
 Data sizes:     COMRAM   BANK0   BANK1   BANK2   BANK3   BANK4   BANK5
      Params:         4       0       0       0       0       0       0
      Locals:         2       0       0       0       0       0       0
      Temps:          0       0       0       0       0       0       0
      Totals:         6       0       0       0       0       0       0
Total ram usage:        6 bytes
 Hardware stack levels used:    1
 Hardware stack levels required when called:    3
 This function calls:
		_strchr
 This function is called by:
		_strtok
 This function uses a non-reentrant model


 *************** function _strchr *****************
 Defined at:
		line 5 in file "C:\Program Files (x86)\Microchip\xc8\v1.21\sources\common\strchr.c"
 Parameters:    Size  Location     Type
  ptr             2   24[COMRAM] PTR const unsigned char 
		 -> STR_104(2), STR_102(2), STR_100(2), STR_98(2), 
		 -> STR_95(2), STR_92(2), STR_90(2), STR_88(2), 
		 -> STR_86(2), STR_83(2), STR_73(2), STR_71(2), 
		 -> STR_69(2), STR_50(2), STR_48(2), STR_46(2), 
		 -> STR_34(2), STR_33(2), STR_32(2), STR_31(2), 
		 -> STR_30(2), NULL(0), STR_29(2), cmdbuf(80), 
  chr             2   26[COMRAM] int 
 Auto vars:     Size  Location     Type
		None
 Return value:  Size  Location     Type
                  2   24[COMRAM] PTR unsigned char 
 Registers used:
		wreg, fsr0l, fsr0h, status,2, status,0, tblptrl, tblptrh, tblptru
 Tracked objects:
		On entry : 
		On exit  : 
		Unchanged: 
 Data sizes:     COMRAM   BANK0   BANK1   BANK2   BANK3   BANK4   BANK5
      Params:         4       0       0       0       0       0       0
      Locals:         0       0       0       0       0       0       0
      Temps:          2       0       0       0       0       0       0
      Totals:         6       0       0       0       0       0       0
Total ram usage:        6 bytes
 Hardware stack levels used:    1
 Hardware stack levels required when called:    2
 This function calls:
		Nothing
 This function is called by:
		_doModeVerbose
		_strcspn
		_strspn
 This function uses a non-reentrant model


 *************** function _stristr *****************
 Defined at:
		line 5 in file "C:\Program Files (x86)\Microchip\xc8\v1.21\sources\common\stristr.c"
 Parameters:    Size  Location     Type
  s1              2   37[COMRAM] PTR const unsigned char 
		 -> NULL(0), cmdbuf(80), 
  s2              2   39[COMRAM] PTR const unsigned char 
		 -> STR_121(6), STR_120(8), STR_118(6), STR_116(5), 
		 -> STR_114(8), STR_113(6), STR_112(9), STR_111(11), 
		 -> STR_109(8), STR_107(4), STR_106(5), STR_94(5), 
		 -> STR_82(7), STR_77(5), STR_68(5), STR_45(5), 
		 -> STR_44(5), STR_42(5), STR_41(4), STR_40(5), 
		 -> STR_37(3), STR_28(3), STR_19(7), STR_17(8), 
		 -> STR_15(7), STR_13(9), STR_11(6), STR_9(7), 
		 -> STR_7(5), STR_5(5), 
 Auto vars:     Size  Location     Type
		None
 Return value:  Size  Location     Type
                  2   37[COMRAM] PTR unsigned char 
 Registers used:
		wreg, fsr0l, fsr0h, fsr2l, fsr2h, status,2, status,0, tblptrl, tblptrh, tblptru, cstack
 Tracked objects:
		On entry : 
		On exit  : 
		Unchanged: 
 Data sizes:     COMRAM   BANK0   BANK1   BANK2   BANK3   BANK4   BANK5
      Params:         4       0       0       0       0       0       0
      Locals:         0       0       0       0       0       0       0
      Temps:          0       0       0       0       0       0       0
      Totals:         4       0       0       0       0       0       0
Total ram usage:        4 bytes
 Hardware stack levels used:    1
 Hardware stack levels required when called:    4
 This function calls:
		_strlen
		_strnicmp
		_strichr
 This function is called by:
		_doModeVerbose
 This function uses a non-reentrant model


 *************** function _strichr *****************
 Defined at:
		line 6 in file "C:\Program Files (x86)\Microchip\xc8\v1.21\sources\common\strichr.c"
 Parameters:    Size  Location     Type
  ptr             2   25[COMRAM] PTR const unsigned char 
		 -> NULL(0), cmdbuf(80), 
  chr             2   27[COMRAM] int 
 Auto vars:     Size  Location     Type
		None
 Return value:  Size  Location     Type
                  2   25[COMRAM] PTR unsigned char 
 Registers used:
		wreg, fsr2l, fsr2h, status,2, status,0, cstack
 Tracked objects:
		On entry : 
		On exit  : 
		Unchanged: 
 Data sizes:     COMRAM   BANK0   BANK1   BANK2   BANK3   BANK4   BANK5
      Params:         4       0       0       0       0       0       0
      Locals:         0       0       0       0       0       0       0
      Temps:          0       0       0       0       0       0       0
      Totals:         4       0       0       0       0       0       0
Total ram usage:        4 bytes
 Hardware stack levels used:    1
 Hardware stack levels required when called:    3
 This function calls:
		_toupper
 This function is called by:
		_stristr
 This function uses a non-reentrant model


 *************** function _strnicmp *****************
 Defined at:
		line 6 in file "C:\Program Files (x86)\Microchip\xc8\v1.21\sources\common\strnicmp.c"
 Parameters:    Size  Location     Type
  s1              2   28[COMRAM] PTR const unsigned char 
		 -> NULL(0), cmdbuf(80), 
  s2              2   30[COMRAM] PTR const unsigned char 
		 -> STR_121(6), STR_120(8), STR_118(6), STR_116(5), 
		 -> STR_114(8), STR_113(6), STR_112(9), STR_111(11), 
		 -> STR_109(8), STR_107(4), STR_106(5), STR_94(5), 
		 -> STR_82(7), STR_77(5), STR_68(5), STR_45(5), 
		 -> STR_44(5), STR_42(5), STR_41(4), STR_40(5), 
		 -> STR_37(3), STR_28(3), STR_19(7), STR_17(8), 
		 -> STR_15(7), STR_13(9), STR_11(6), STR_9(7), 
		 -> STR_7(5), STR_5(5), 
  len             2   32[COMRAM] unsigned int 
 Auto vars:     Size  Location     Type
  r               1   36[COMRAM] char 
 Return value:  Size  Location     Type
                  2   28[COMRAM] int 
 Registers used:
		wreg, fsr2l, fsr2h, status,2, status,0, tblptrl, tblptrh, tblptru, cstack
 Tracked objects:
		On entry : 
		On exit  : 
		Unchanged: 
 Data sizes:     COMRAM   BANK0   BANK1   BANK2   BANK3   BANK4   BANK5
      Params:         6       0       0       0       0       0       0
      Locals:         1       0       0       0       0       0       0
      Temps:          2       0       0       0       0       0       0
      Totals:         9       0       0       0       0       0       0
Total ram usage:        9 bytes
 Hardware stack levels used:    1
 Hardware stack levels required when called:    3
 This function calls:
		_toupper
 This function is called by:
		_stristr
 This function uses a non-reentrant model


 *************** function _toupper *****************
 Defined at:
		line 9 in file "C:\Program Files (x86)\Microchip\xc8\v1.21\sources\common\toupper.c"
 Parameters:    Size  Location     Type
  c               1    wreg     unsigned char 
 Auto vars:     Size  Location     Type
  c               1   24[COMRAM] unsigned char 
 Return value:  Size  Location     Type
                  1    wreg      unsigned char 
 Registers used:
		wreg, status,2, status,0
 Tracked objects:
		On entry : 
		On exit  : 
		Unchanged: 
 Data sizes:     COMRAM   BANK0   BANK1   BANK2   BANK3   BANK4   BANK5
      Params:         0       0       0       0       0       0       0
      Locals:         1       0       0       0       0       0       0
      Temps:          0       0       0       0       0       0       0
      Totals:         1       0       0       0       0       0       0
Total ram usage:        1 bytes
 Hardware stack levels used:    1
 Hardware stack levels required when called:    2
 This function calls:
		Nothing
 This function is called by:
		_strnicmp
		_strichr
 This function uses a non-reentrant model


 *************** function _strlen *****************
 Defined at:
		line 5 in file "C:\Program Files (x86)\Microchip\xc8\v1.21\sources\common\strlen.c"
 Parameters:    Size  Location     Type
  s               2   24[COMRAM] PTR const unsigned char 
		 -> printGUID@buf(3), STR_121(6), STR_120(8), STR_118(6), 
		 -> STR_116(5), STR_114(8), STR_113(6), STR_112(9), 
		 -> STR_111(11), STR_109(8), STR_107(4), STR_106(5), 
		 -> STR_94(5), STR_82(7), STR_77(5), STR_68(5), 
		 -> wrkbuf(80), STR_45(5), STR_44(5), STR_42(5), 
		 -> STR_41(4), STR_40(5), STR_37(3), STR_28(3), 
		 -> STR_19(7), STR_17(8), STR_15(7), STR_13(9), 
		 -> STR_11(6), STR_9(7), STR_7(5), STR_5(5), 
		 -> cmdbuf(80), 
 Auto vars:     Size  Location     Type
  cp              2   26[COMRAM] PTR const unsigned char 
		 -> printGUID@buf(3), STR_121(6), STR_120(8), STR_118(6), 
		 -> STR_116(5), STR_114(8), STR_113(6), STR_112(9), 
		 -> STR_111(11), STR_109(8), STR_107(4), STR_106(5), 
		 -> STR_94(5), STR_82(7), STR_77(5), STR_68(5), 
		 -> wrkbuf(80), STR_45(5), STR_44(5), STR_42(5), 
		 -> STR_41(4), STR_40(5), STR_37(3), STR_28(3), 
		 -> STR_19(7), STR_17(8), STR_15(7), STR_13(9), 
		 -> STR_11(6), STR_9(7), STR_7(5), STR_5(5), 
		 -> cmdbuf(80), 
 Return value:  Size  Location     Type
                  2   24[COMRAM] unsigned int 
 Registers used:
		wreg, fsr0l, fsr0h, status,2, status,0, tblptrl, tblptrh, tblptru
 Tracked objects:
		On entry : 
		On exit  : 
		Unchanged: 
 Data sizes:     COMRAM   BANK0   BANK1   BANK2   BANK3   BANK4   BANK5
      Params:         2       0       0       0       0       0       0
      Locals:         2       0       0       0       0       0       0
      Temps:          0       0       0       0       0       0       0
      Totals:         4       0       0       0       0       0       0
Total ram usage:        4 bytes
 Hardware stack levels used:    1
 Hardware stack levels required when called:    2
 This function calls:
		Nothing
 This function is called by:
		_doModeSLCAN
		_receivePrintEventSLCAN
		_printGUID
		_hexStringToBytes
		_stristr
 This function uses a non-reentrant model


 *************** function _receivePrintEventVerbose *****************
 Defined at:
		line 1529 in file "main.c"
 Parameters:    Size  Location     Type
		None
 Auto vars:     Size  Location     Type
  i               1   47[BANK0 ] unsigned char 
 Return value:  Size  Location     Type
                  1    wreg      enum E15660
 Registers used:
		wreg, fsr0l, fsr0h, fsr1l, fsr1h, fsr1l, fsr1h, fsr2l, fsr2h, status,2, status,0, pclat, btemp, btemp+1, btemp+2, btemp+3, btemp+4, btemp+5, btemp+6, btemp+7, tosl, structret, tblptrl, tblptrh, tblptru, prodl, prodh, bsr, cstack
 Tracked objects:
		On entry : 
		On exit  : 
		Unchanged: 
 Data sizes:     COMRAM   BANK0   BANK1   BANK2   BANK3   BANK4   BANK5
      Params:         0       0       0       0       0       0       0
      Locals:         0      13       0       0       0       0       0
      Temps:          0       5       0       0       0       0       0
      Totals:         0      18       0       0       0       0       0
Total ram usage:       18 bytes
 Hardware stack levels used:    1
 Hardware stack levels required when called:    6
 This function calls:
		_putsUSART
		_sprintf
		_getVSCPFrame
 This function is called by:
		_doModeVerbose
 This function uses a non-reentrant model


 *************** function _getVSCPFrame *****************
 Defined at:
		line 2553 in file "main.c"
 Parameters:    Size  Location     Type
  pvscpclass      1    wreg     PTR unsigned short 
		 -> vscpClass(2), 
  pvscptype       1    2[BANK0 ] PTR unsigned char 
		 -> vscpType(1), 
  pNodeId         1    3[BANK0 ] PTR unsigned char 
		 -> vscpNodeId(1), 
  pPriority       1    4[BANK0 ] PTR unsigned char 
		 -> vscpPriority(1), 
  pSize           1    5[BANK0 ] PTR unsigned char 
		 -> vscpSize(1), 
  pData           1    6[BANK0 ] PTR unsigned char 
		 -> vscpData(8), 
 Auto vars:     Size  Location     Type
  pvscpclass      1   11[BANK0 ] PTR unsigned short 
		 -> vscpClass(2), 
  id              4   12[BANK0 ] unsigned long 
 Return value:  Size  Location     Type
                  1    wreg      unsigned char 
 Registers used:
		wreg, fsr1l, fsr1h, fsr2l, fsr2h, status,2, status,0, cstack
 Tracked objects:
		On entry : 
		On exit  : 
		Unchanged: 
 Data sizes:     COMRAM   BANK0   BANK1   BANK2   BANK3   BANK4   BANK5
      Params:         0       5       0       0       0       0       0
      Locals:         0       5       0       0       0       0       0
      Temps:          0       4       0       0       0       0       0
      Totals:         0      14       0       0       0       0       0
Total ram usage:       14 bytes
 Hardware stack levels used:    1
 Hardware stack levels required when called:    5
 This function calls:
		_getCANFrame
 This function is called by:
		_receivePrintEventVerbose
		_readRegister
		_readRegisterExtended
		_writeRegisterExtended
 This function uses a non-reentrant model


 *************** function _getCANFrame *****************
 Defined at:
		line 2587 in file "main.c"
 Parameters:    Size  Location     Type
  pid             1    wreg     PTR unsigned long 
		 -> getVSCPFrame@id(4), receivePrintEventSLCAN@id(4), receivePrintEventCANAL@id(4), 
  pdlc            1   43[COMRAM] PTR unsigned char 
		 -> receivePrintEventSLCAN@dlc(1), receivePrintEventCANAL@dlc(1), vscpSize(1), 
  pdata           2   44[COMRAM] PTR unsigned char 
		 -> receivePrintEventCANAL@data(8), vscpData(8), 
 Auto vars:     Size  Location     Type
  pid             1    0[BANK0 ] PTR unsigned long 
		 -> getVSCPFrame@id(4), receivePrintEventSLCAN@id(4), receivePrintEventCANAL@id(4), 
  flags           1    1[BANK0 ] enum E16358
 Return value:  Size  Location     Type
                  1    wreg      unsigned char 
 Registers used:
		wreg, fsr1l, fsr1h, fsr2l, fsr2h, status,2, status,0, cstack
 Tracked objects:
		On entry : 
		On exit  : 
		Unchanged: 
 Data sizes:     COMRAM   BANK0   BANK1   BANK2   BANK3   BANK4   BANK5
      Params:         3       0       0       0       0       0       0
      Locals:         0       2       0       0       0       0       0
      Temps:          0       0       0       0       0       0       0
      Totals:         3       2       0       0       0       0       0
Total ram usage:        5 bytes
 Hardware stack levels used:    1
 Hardware stack levels required when called:    4
 This function calls:
		_ECANReceiveMessage
 This function is called by:
		_receivePrintEventCANAL
		_receivePrintEventSLCAN
		_getVSCPFrame
 This function uses a non-reentrant model


 *************** function _ECANReceiveMessage *****************
 Defined at:
		line 803 in file "ECAN.c"
 Parameters:    Size  Location     Type
  id              1    wreg     PTR unsigned long 
		 -> getVSCPFrame@id(4), receivePrintEventSLCAN@id(4), receivePrintEventCANAL@id(4), 
  data            2   31[COMRAM] PTR unsigned char 
		 -> receivePrintEventCANAL@data(8), vscpData(8), 
  dataLen         1   33[COMRAM] PTR unsigned char 
		 -> receivePrintEventSLCAN@dlc(1), receivePrintEventCANAL@dlc(1), vscpSize(1), 
  msgFlags        1   34[COMRAM] PTR enum E16333
		 -> getCANFrame@flags(1), 
 Auto vars:     Size  Location     Type
  id              1   35[COMRAM] PTR unsigned long 
		 -> getVSCPFrame@id(4), receivePrintEventSLCAN@id(4), receivePrintEventCANAL@id(4), 
  ptr             2   41[COMRAM] PTR unsigned char 
		 -> B5CON(1), B4CON(1), B3CON(1), B2CON(1), 
		 -> B1CON(1), B0CON(1), RXB1CON(1), RXB0CON(1), 
  savedPtr        2   36[COMRAM] PTR unsigned char 
		 -> B5CON(1), B4CON(1), B3CON(1), B2CON(1), 
		 -> B1CON(1), B0CON(1), RXB1CON(1), RXB0CON(1), 
  temp            1   40[COMRAM] struct .
  mode            1   39[COMRAM] unsigned char 
  i               1   38[COMRAM] unsigned char 
 Return value:  Size  Location     Type
                  1    wreg      enum E15660
 Registers used:
		wreg, fsr1l, fsr1h, fsr2l, fsr2h, status,2, status,0, cstack
 Tracked objects:
		On entry : 
		On exit  : 
		Unchanged: 
 Data sizes:     COMRAM   BANK0   BANK1   BANK2   BANK3   BANK4   BANK5
      Params:         4       0       0       0       0       0       0
      Locals:         8       0       0       0       0       0       0
      Temps:          0       0       0       0       0       0       0
      Totals:        12       0       0       0       0       0       0
Total ram usage:       12 bytes
 Hardware stack levels used:    1
 Hardware stack levels required when called:    3
 This function calls:
		__ECANPointBuffer
		__RegsToCANID
 This function is called by:
		_getCANFrame
 This function uses a non-reentrant model


 *************** function __RegsToCANID *****************
 Defined at:
		line 1156 in file "ECAN.c"
 Parameters:    Size  Location     Type
  ptr             2   24[COMRAM] PTR unsigned char 
		 -> B5CON(1), B4CON(1), B3CON(1), B2CON(1), 
		 -> B1CON(1), B0CON(1), RXB1CON(1), RXB0CON(1), 
  val             1   26[COMRAM] PTR unsigned long 
		 -> getVSCPFrame@id(4), receivePrintEventSLCAN@id(4), receivePrintEventCANAL@id(4), 
  type            1   27[COMRAM] unsigned char 
 Auto vars:     Size  Location     Type
  Value           1   30[COMRAM] PTR struct _CAN_MESSAGE_
		 -> getVSCPFrame@id(4), receivePrintEventSLCAN@id(4), receivePrintEventCANAL@id(4), 
 Return value:  Size  Location     Type
		None               void
 Registers used:
		wreg, fsr1l, fsr1h, fsr2l, fsr2h, status,2, status,0
 Tracked objects:
		On entry : 
		On exit  : 
		Unchanged: 
 Data sizes:     COMRAM   BANK0   BANK1   BANK2   BANK3   BANK4   BANK5
      Params:         4       0       0       0       0       0       0
      Locals:         1       0       0       0       0       0       0
      Temps:          2       0       0       0       0       0       0
      Totals:         7       0       0       0       0       0       0
Total ram usage:        7 bytes
 Hardware stack levels used:    1
 Hardware stack levels required when called:    2
 This function calls:
		Nothing
 This function is called by:
		_ECANReceiveMessage
 This function uses a non-reentrant model


 *************** function __ECANPointBuffer *****************
 Defined at:
		line 1207 in file "ECAN.c"
 Parameters:    Size  Location     Type
  b               1    wreg     unsigned char 
 Auto vars:     Size  Location     Type
  b               1   27[COMRAM] unsigned char 
  pt              2   28[COMRAM] PTR unsigned char 
		 -> B5CON(1), B4CON(1), B3CON(1), B2CON(1), 
		 -> B1CON(1), B0CON(1), RXB1CON(1), RXB0CON(1), 
 Return value:  Size  Location     Type
                  2   24[COMRAM] PTR unsigned char 
 Registers used:
		wreg, status,2, status,0
 Tracked objects:
		On entry : 
		On exit  : 
		Unchanged: 
 Data sizes:     COMRAM   BANK0   BANK1   BANK2   BANK3   BANK4   BANK5
      Params:         3       0       0       0       0       0       0
      Locals:         3       0       0       0       0       0       0
      Temps:          0       0       0       0       0       0       0
      Totals:         6       0       0       0       0       0       0
Total ram usage:        6 bytes
 Hardware stack levels used:    1
 Hardware stack levels required when called:    2
 This function calls:
		Nothing
 This function is called by:
		_ECANReceiveMessage
 This function uses a non-reentrant model


 *************** function _sprintf *****************
 Defined at:
		line 493 in file "C:\Program Files (x86)\Microchip\xc8\v1.21\sources\common\doprnt.c"
 Parameters:    Size  Location     Type
  sp              2    0[BANK0 ] PTR unsigned char 
		 -> wrkbuf(80), 
  f               2    2[BANK0 ] PTR const unsigned char 
		 -> STR_192(3), STR_191(7), STR_185(3), STR_184(7), 
		 -> STR_181(4), STR_180(8), STR_177(4), STR_176(8), 
		 -> STR_173(4), STR_172(8), STR_169(4), STR_168(8), 
		 -> STR_165(4), STR_164(7), STR_161(4), STR_160(7), 
		 -> STR_157(4), STR_156(7), STR_153(4), STR_152(7), 
		 -> STR_147(3), STR_146(7), STR_144(3), STR_143(7), 
		 -> STR_141(3), STR_140(7), STR_138(3), STR_137(7), 
		 -> STR_135(3), STR_134(7), STR_132(3), STR_131(7), 
		 -> STR_80(3), STR_79(7), STR_64(3), STR_63(7), 
		 -> STR_62(3), STR_61(7), STR_58(3), STR_57(7), 
		 -> STR_55(3), STR_54(7), STR_53(3), STR_52(7), 
 Auto vars:     Size  Location     Type
  idx             1   11[BANK0 ] unsigned char 
  _val            4   23[BANK0 ] struct .
  flag            2   28[BANK0 ] unsigned short 
  width           2   21[BANK0 ] int 
  prec            2   19[BANK0 ] int 
  c               1   27[BANK0 ] char 
  ap              1   18[BANK0 ] PTR void [1]
		 -> ?_sprintf(2), 
 Return value:  Size  Location     Type
                  2    0[BANK0 ] int 
 Registers used:
		wreg, fsr1l, fsr1h, fsr2l, fsr2h, status,2, status,0, tblptrl, tblptrh, tblptru, prodl, prodh, cstack
 Tracked objects:
		On entry : 
		On exit  : 
		Unchanged: 
 Data sizes:     COMRAM   BANK0   BANK1   BANK2   BANK3   BANK4   BANK5
      Params:         0       8       0       0       0       0       0
      Locals:         0      19       0       0       0       0       0
      Temps:          0       3       0       0       0       0       0
      Totals:         0      30       0       0       0       0       0
Total ram usage:       30 bytes
 Hardware stack levels used:    1
 Hardware stack levels required when called:    3
 This function calls:
		_isdigit
		___lldiv
		___llmod
		___wmul
 This function is called by:
		_doModeVerbose
		_receivePrintEventVerbose
		_printStatistics
		_printErrors
 This function uses a non-reentrant model


 *************** function ___wmul *****************
 Defined at:
		line 5 in file "C:\Program Files (x86)\Microchip\xc8\v1.21\sources\common\wmul.c"
 Parameters:    Size  Location     Type
  multiplier      2   24[COMRAM] unsigned int 
  multiplicand    2   26[COMRAM] unsigned int 
 Auto vars:     Size  Location     Type
  product         2   28[COMRAM] unsigned int 
 Return value:  Size  Location     Type
                  2   24[COMRAM] unsigned int 
 Registers used:
		wreg, status,2, status,0, prodl, prodh
 Tracked objects:
		On entry : 
		On exit  : 
		Unchanged: 
 Data sizes:     COMRAM   BANK0   BANK1   BANK2   BANK3   BANK4   BANK5
      Params:         4       0       0       0       0       0       0
      Locals:         2       0       0       0       0       0       0
      Temps:          0       0       0       0       0       0       0
      Totals:         6       0       0       0       0       0       0
Total ram usage:        6 bytes
 Hardware stack levels used:    1
 Hardware stack levels required when called:    2
 This function calls:
		Nothing
 This function is called by:
		_sprintf
		_atoi
 This function uses a non-reentrant model


 *************** function ___llmod *****************
 Defined at:
		line 10 in file "C:\Program Files (x86)\Microchip\xc8\v1.21\sources\common\llmod.c"
 Parameters:    Size  Location     Type
  dividend        4   37[COMRAM] unsigned long 
  divisor         4   41[COMRAM] unsigned long 
 Auto vars:     Size  Location     Type
  counter         1   45[COMRAM] unsigned char 
 Return value:  Size  Location     Type
                  4   37[COMRAM] unsigned long 
 Registers used:
		wreg, status,2, status,0
 Tracked objects:
		On entry : 
		On exit  : 
		Unchanged: 
 Data sizes:     COMRAM   BANK0   BANK1   BANK2   BANK3   BANK4   BANK5
      Params:         8       0       0       0       0       0       0
      Locals:         1       0       0       0       0       0       0
      Temps:          0       0       0       0       0       0       0
      Totals:         9       0       0       0       0       0       0
Total ram usage:        9 bytes
 Hardware stack levels used:    1
 Hardware stack levels required when called:    2
 This function calls:
		Nothing
 This function is called by:
		_sprintf
		_ultoa
 This function uses a non-reentrant model


 *************** function ___lldiv *****************
 Defined at:
		line 10 in file "C:\Program Files (x86)\Microchip\xc8\v1.21\sources\common\lldiv.c"
 Parameters:    Size  Location     Type
  dividend        4   24[COMRAM] unsigned long 
  divisor         4   28[COMRAM] unsigned long 
 Auto vars:     Size  Location     Type
  quotient        4   32[COMRAM] unsigned long 
  counter         1   36[COMRAM] unsigned char 
 Return value:  Size  Location     Type
                  4   24[COMRAM] unsigned long 
 Registers used:
		wreg, status,2, status,0
 Tracked objects:
		On entry : 
		On exit  : 
		Unchanged: 
 Data sizes:     COMRAM   BANK0   BANK1   BANK2   BANK3   BANK4   BANK5
      Params:         8       0       0       0       0       0       0
      Locals:         5       0       0       0       0       0       0
      Temps:          0       0       0       0       0       0       0
      Totals:        13       0       0       0       0       0       0
Total ram usage:       13 bytes
 Hardware stack levels used:    1
 Hardware stack levels required when called:    2
 This function calls:
		Nothing
 This function is called by:
		_sprintf
		_ultoa
 This function uses a non-reentrant model


 *************** function _isdigit *****************
 Defined at:
		line 13 in file "C:\Program Files (x86)\Microchip\xc8\v1.21\sources\common\isdigit.c"
 Parameters:    Size  Location     Type
  c               1    wreg     unsigned char 
 Auto vars:     Size  Location     Type
  c               1   26[COMRAM] unsigned char 
 Return value:  Size  Location     Type
		None               void
 Registers used:
		wreg, status,2, status,0
 Tracked objects:
		On entry : 
		On exit  : 
		Unchanged: 
 Data sizes:     COMRAM   BANK0   BANK1   BANK2   BANK3   BANK4   BANK5
      Params:         0       0       0       0       0       0       0
      Locals:         2       0       0       0       0       0       0
      Temps:          1       0       0       0       0       0       0
      Totals:         3       0       0       0       0       0       0
Total ram usage:        3 bytes
 Hardware stack levels used:    1
 Hardware stack levels required when called:    2
 This function calls:
		Nothing
 This function is called by:
		_sprintf
		_atoi
 This function uses a non-reentrant model


 *************** function _fifo_read *****************
 Defined at:
		line 29 in file "fifo.c"
 Parameters:    Size  Location     Type
  f               2   24[COMRAM] PTR struct .
		 -> serialInputFifo(8), 
  buf             2   26[COMRAM] PTR void 
		 -> doModeSLCAN@c(1), doModeVscp@c(1), doModeVerbose@c(1), main@c(1), 
  nbytes          2   28[COMRAM] unsigned short 
 Auto vars:     Size  Location     Type
  i               2   36[COMRAM] unsigned short 
  p               2   34[COMRAM] PTR unsigned char 
		 -> doModeSLCAN@c(1), doModeVscp@c(1), doModeVerbose@c(1), main@c(1), 
 Return value:  Size  Location     Type
                  2   24[COMRAM] unsigned short 
 Registers used:
		wreg, fsr1l, fsr1h, fsr2l, fsr2h, status,2, status,0
 Tracked objects:
		On entry : 
		On exit  : 
		Unchanged: 
 Data sizes:     COMRAM   BANK0   BANK1   BANK2   BANK3   BANK4   BANK5
      Params:         6       0       0       0       0       0       0
      Locals:         4       0       0       0       0       0       0
      Temps:          4       0       0       0       0       0       0
      Totals:        14       0       0       0       0       0       0
Total ram usage:       14 bytes
 Hardware stack levels used:    1
 Hardware stack levels required when called:    2
 This function calls:
		Nothing
 This function is called by:
		_main
		_doModeVerbose
		_doModeVscp
		_doModeSLCAN
 This function uses a non-reentrant model


 *************** function _printFirmwareVersion *****************
 Defined at:
		line 2353 in file "main.c"
 Parameters:    Size  Location     Type
		None
 Auto vars:     Size  Location     Type
  wrkbuf         20    2[BANK0 ] unsigned char [20]
 Return value:  Size  Location     Type
		None               void
 Registers used:
		wreg, fsr0l, fsr0h, fsr2l, fsr2h, status,2, status,0, tblptrl, tblptrh, tblptru, cstack
 Tracked objects:
		On entry : 
		On exit  : 
		Unchanged: 
 Data sizes:     COMRAM   BANK0   BANK1   BANK2   BANK3   BANK4   BANK5
      Params:         0       0       0       0       0       0       0
      Locals:         0      20       0       0       0       0       0
      Temps:          0       0       0       0       0       0       0
      Totals:         0      20       0       0       0       0       0
Total ram usage:       20 bytes
 Hardware stack levels used:    1
 Hardware stack levels required when called:    5
 This function calls:
		_putsUSART
		_WriteUSART
		_itoa
 This function is called by:
		_main
		_doModeVerbose
 This function uses a non-reentrant model


 *************** function _itoa *****************
 Defined at:
		line 5 in file "C:\Program Files (x86)\Microchip\xc8\v1.21\sources\common\itoa.c"
 Parameters:    Size  Location     Type
  buf             2   40[COMRAM] PTR unsigned char 
		 -> printFirmwareVersion@wrkbuf(20), printNodeFirmwareVersion@buf(3), printGUID@buf(3), wrkbuf(80), 
  val             2   42[COMRAM] int 
  base            2   44[COMRAM] int 
 Auto vars:     Size  Location     Type
  cp              2    0        PTR unsigned char 
		 -> printFirmwareVersion@wrkbuf(20), printNodeFirmwareVersion@buf(3), printGUID@buf(3), wrkbuf(80), 
 Return value:  Size  Location     Type
                  2   40[COMRAM] PTR unsigned char 
 Registers used:
		wreg, fsr2l, fsr2h, status,2, status,0, cstack
 Tracked objects:
		On entry : 
		On exit  : 
		Unchanged: 
 Data sizes:     COMRAM   BANK0   BANK1   BANK2   BANK3   BANK4   BANK5
      Params:         6       0       0       0       0       0       0
      Locals:         0       2       0       0       0       0       0
      Temps:          0       0       0       0       0       0       0
      Totals:         6       2       0       0       0       0       0
Total ram usage:        8 bytes
 Hardware stack levels used:    1
 Hardware stack levels required when called:    4
 This function calls:
		_utoa
 This function is called by:
		_receivePrintEventSLCAN
		_findNodes
		_printGUID
		_printNodeFirmwareVersion
		_printFirmwareVersion
 This function uses a non-reentrant model


 *************** function _utoa *****************
 Defined at:
		line 18 in file "C:\Program Files (x86)\Microchip\xc8\v1.21\sources\common\itoa.c"
 Parameters:    Size  Location     Type
  buf             2   31[COMRAM] PTR unsigned char 
		 -> printFirmwareVersion@wrkbuf(20), printNodeFirmwareVersion@buf(3), printGUID@buf(3), wrkbuf(80), 
  val             2   33[COMRAM] unsigned int 
  base            2   35[COMRAM] int 
 Auto vars:     Size  Location     Type
  v               2   37[COMRAM] unsigned int 
  c               1   39[COMRAM] unsigned char 
 Return value:  Size  Location     Type
                  2   31[COMRAM] PTR unsigned char 
 Registers used:
		wreg, fsr2l, fsr2h, status,2, status,0, cstack
 Tracked objects:
		On entry : 
		On exit  : 
		Unchanged: 
 Data sizes:     COMRAM   BANK0   BANK1   BANK2   BANK3   BANK4   BANK5
      Params:         6       0       0       0       0       0       0
      Locals:         3       0       0       0       0       0       0
      Temps:          0       0       0       0       0       0       0
      Totals:         9       0       0       0       0       0       0
Total ram usage:        9 bytes
 Hardware stack levels used:    1
 Hardware stack levels required when called:    3
 This function calls:
		___lwdiv
		___lwmod
 This function is called by:
		_itoa
 This function uses a non-reentrant model


 *************** function ___lwmod *****************
 Defined at:
		line 10 in file "C:\Program Files (x86)\Microchip\xc8\v1.21\sources\common\lwmod.c"
 Parameters:    Size  Location     Type
  dividend        2   24[COMRAM] unsigned int 
  divisor         2   26[COMRAM] unsigned int 
 Auto vars:     Size  Location     Type
  counter         1   28[COMRAM] unsigned char 
 Return value:  Size  Location     Type
                  2   24[COMRAM] unsigned int 
 Registers used:
		wreg, status,2, status,0
 Tracked objects:
		On entry : 
		On exit  : 
		Unchanged: 
 Data sizes:     COMRAM   BANK0   BANK1   BANK2   BANK3   BANK4   BANK5
      Params:         4       0       0       0       0       0       0
      Locals:         1       0       0       0       0       0       0
      Temps:          0       0       0       0       0       0       0
      Totals:         5       0       0       0       0       0       0
Total ram usage:        5 bytes
 Hardware stack levels used:    1
 Hardware stack levels required when called:    2
 This function calls:
		Nothing
 This function is called by:
		_utoa
 This function uses a non-reentrant model


 *************** function ___lwdiv *****************
 Defined at:
		line 10 in file "C:\Program Files (x86)\Microchip\xc8\v1.21\sources\common\lwdiv.c"
 Parameters:    Size  Location     Type
  dividend        2   24[COMRAM] unsigned int 
  divisor         2   26[COMRAM] unsigned int 
 Auto vars:     Size  Location     Type
  quotient        2   29[COMRAM] unsigned int 
  counter         1   28[COMRAM] unsigned char 
 Return value:  Size  Location     Type
                  2   24[COMRAM] unsigned int 
 Registers used:
		wreg, status,2, status,0
 Tracked objects:
		On entry : 
		On exit  : 
		Unchanged: 
 Data sizes:     COMRAM   BANK0   BANK1   BANK2   BANK3   BANK4   BANK5
      Params:         4       0       0       0       0       0       0
      Locals:         3       0       0       0       0       0       0
      Temps:          0       0       0       0       0       0       0
      Totals:         7       0       0       0       0       0       0
Total ram usage:        7 bytes
 Hardware stack levels used:    1
 Hardware stack levels required when called:    2
 This function calls:
		Nothing
 This function is called by:
		_utoa
 This function uses a non-reentrant model


 *************** function _printMode *****************
 Defined at:
		line 2373 in file "main.c"
 Parameters:    Size  Location     Type
		None
 Auto vars:     Size  Location     Type
		None
 Return value:  Size  Location     Type
		None               void
 Registers used:
		wreg, fsr0l, fsr0h, status,2, status,0, tblptrl, tblptrh, tblptru, cstack
 Tracked objects:
		On entry : 
		On exit  : 
		Unchanged: 
 Data sizes:     COMRAM   BANK0   BANK1   BANK2   BANK3   BANK4   BANK5
      Params:         0       0       0       0       0       0       0
      Locals:         0       0       0       0       0       0       0
      Temps:          0       0       0       0       0       0       0
      Totals:         0       0       0       0       0       0       0
Total ram usage:        0 bytes
 Hardware stack levels used:    1
 Hardware stack levels required when called:    4
 This function calls:
		_putsUSART
 This function is called by:
		_main
 This function uses a non-reentrant model


 *************** function _putsUSART *****************
 Defined at:
		line 15 in file "C:\Program Files (x86)\Microchip\xc8\v1.21\sources\pic18\plib\USART\uputs.c"
 Parameters:    Size  Location     Type
  data            2   25[COMRAM] PTR unsigned char 
		 -> STR_253(3), STR_252(23), STR_251(10), STR_250(10), 
		 -> STR_249(12), STR_248(8), STR_247(7), STR_246(3), 
		 -> printFirmwareVersion@wrkbuf(20), STR_245(10), STR_244(3), STR_241(20), 
		 -> STR_240(3), STR_239(14), STR_238(3), STR_234(8), 
		 -> STR_233(15), STR_232(67), STR_231(3), STR_230(27), 
		 -> STR_229(67), STR_228(39), STR_227(62), STR_226(55), 
		 -> STR_225(49), STR_224(67), STR_223(47), STR_222(47), 
		 -> STR_221(34), STR_220(71), STR_219(20), STR_218(78), 
		 -> STR_217(24), STR_216(77), STR_215(67), STR_214(69), 
		 -> STR_213(47), STR_212(40), STR_211(39), STR_210(33), 
		 -> STR_209(23), STR_208(56), STR_207(24), STR_206(44), 
		 -> STR_205(50), STR_204(31), STR_203(50), STR_202(51), 
		 -> STR_201(46), STR_200(44), STR_199(27), STR_198(39), 
		 -> STR_197(39), STR_196(52), STR_195(54), STR_194(55), 
		 -> STR_193(3), STR_190(24), STR_189(57), STR_188(53), 
		 -> STR_187(58), STR_186(3), STR_183(25), STR_182(3), 
		 -> STR_179(24), STR_178(3), STR_175(24), STR_174(3), 
		 -> STR_171(24), STR_170(3), STR_167(23), STR_166(3), 
		 -> STR_163(21), STR_162(3), STR_159(22), STR_158(3), 
		 -> STR_155(17), STR_154(3), STR_151(18), STR_150(4), 
		 -> STR_149(11), STR_148(2), STR_145(7), STR_142(7), 
		 -> STR_139(9), STR_136(7), STR_133(8), STR_130(7), 
		 -> STR_129(2), STR_128(2), STR_127(6), STR_126(8), 
		 -> STR_125(8), STR_124(20), STR_123(27), STR_122(33), 
		 -> STR_119(26), STR_117(32), STR_115(28), STR_110(40), 
		 -> STR_108(44), STR_105(39), STR_103(36), STR_101(37), 
		 -> STR_99(40), STR_97(37), STR_96(50), STR_93(41), 
		 -> STR_91(38), STR_89(39), STR_87(42), STR_85(39), 
		 -> STR_84(66), STR_81(3), STR_78(20), STR_76(33), 
		 -> STR_75(35), STR_74(24), STR_72(33), STR_70(24), 
		 -> STR_67(54), STR_66(6), STR_65(3), STR_60(34), 
		 -> STR_59(3), STR_56(4), wrkbuf(80), STR_51(15), 
		 -> STR_49(33), STR_47(24), STR_43(6), STR_39(18), 
		 -> STR_38(6), STR_36(33), STR_35(6), STR_27(24), 
		 -> STR_26(18), STR_25(20), STR_24(25), STR_23(22), 
		 -> STR_22(19), STR_21(20), STR_20(20), STR_18(6), 
		 -> STR_16(6), STR_14(6), STR_12(6), STR_10(6), 
		 -> STR_8(6), STR_6(31), STR_4(29), STR_3(55), 
		 -> STR_2(53), STR_1(37), 
 Auto vars:     Size  Location     Type
		None
 Return value:  Size  Location     Type
		None               void
 Registers used:
		wreg, fsr0l, fsr0h, status,2, status,0, tblptrl, tblptrh, tblptru, cstack
 Tracked objects:
		On entry : 
		On exit  : 
		Unchanged: 
 Data sizes:     COMRAM   BANK0   BANK1   BANK2   BANK3   BANK4   BANK5
      Params:         2       0       0       0       0       0       0
      Locals:         0       0       0       0       0       0       0
      Temps:          2       0       0       0       0       0       0
      Totals:         4       0       0       0       0       0       0
Total ram usage:        4 bytes
 Hardware stack levels used:    1
 Hardware stack levels required when called:    3
 This function calls:
		_WriteUSART
 This function is called by:
		_main
		_doModeVerbose
		_doModeSLCAN
		_receivePrintEventVerbose
		_receivePrintEventSLCAN
		_printStatistics
		_printErrors
		_printHelp
		_findNodes
		_printGUID
		_printMDF
		_printNodeFirmwareVersion
		_printFirmwareVersion
		_printMode
 This function uses a non-reentrant model


 *************** function _WriteUSART *****************
 Defined at:
		line 14 in file "C:\Program Files (x86)\Microchip\xc8\v1.21\sources\pic18\plib\USART\uwrite.c"
 Parameters:    Size  Location     Type
  data            1    wreg     unsigned char 
 Auto vars:     Size  Location     Type
  data            1   24[COMRAM] unsigned char 
 Return value:  Size  Location     Type
		None               void
 Registers used:
		wreg
 Tracked objects:
		On entry : 
		On exit  : 
		Unchanged: 
 Data sizes:     COMRAM   BANK0   BANK1   BANK2   BANK3   BANK4   BANK5
      Params:         0       0       0       0       0       0       0
      Locals:         1       0       0       0       0       0       0
      Temps:          0       0       0       0       0       0       0
      Totals:         1       0       0       0       0       0       0
Total ram usage:        1 bytes
 Hardware stack levels used:    1
 Hardware stack levels required when called:    2
 This function calls:
		Nothing
 This function is called by:
		_doModeVerbose
		_sendEscapedUartData
		_sendVSCPDriverErrorFrame
		_sendVSCPDriverAck
		_sendVSCPDriverNack
		_sendVSCPDriverCommandReply
		_receivePrintEventCANAL
		_receivePrintEventSLCAN
		_printBinary
		_printFirmwareVersion
		_putsUSART
 This function uses a non-reentrant model


 *************** function _init *****************
 Defined at:
		line 300 in file "main.c"
 Parameters:    Size  Location     Type
		None
 Auto vars:     Size  Location     Type
		None
 Return value:  Size  Location     Type
		None               void
 Registers used:
		wreg, status,2, status,0, cstack
 Tracked objects:
		On entry : 
		On exit  : 
		Unchanged: 
 Data sizes:     COMRAM   BANK0   BANK1   BANK2   BANK3   BANK4   BANK5
      Params:         0       0       0       0       0       0       0
      Locals:         0       0       0       0       0       0       0
      Temps:          0       0       0       0       0       0       0
      Totals:         0       0       0       0       0       0       0
Total ram usage:        0 bytes
 Hardware stack levels used:    1
 Hardware stack levels required when called:    4
 This function calls:
		_WriteTimer0
		_init_app_ram
		_OpenUSART
		_OpenTimer0
		_ECANInitialize
 This function is called by:
		_main
 This function uses a non-reentrant model


 *************** function _ECANInitialize *****************
 Defined at:
		line 168 in file "ECAN.c"
 Parameters:    Size  Location     Type
		None
 Auto vars:     Size  Location     Type
		None
 Return value:  Size  Location     Type
		None               void
 Registers used:
		wreg, status,2, status,0, cstack
 Tracked objects:
		On entry : 
		On exit  : 
		Unchanged: 
 Data sizes:     COMRAM   BANK0   BANK1   BANK2   BANK3   BANK4   BANK5
      Params:         0       0       0       0       0       0       0
      Locals:         0       0       0       0       0       0       0
      Temps:          0       0       0       0       0       0       0
      Totals:         0       0       0       0       0       0       0
Total ram usage:        0 bytes
 Hardware stack levels used:    1
 Hardware stack levels required when called:    3
 This function calls:
		_ECANSetOperationMode
 This function is called by:
		_init
 This function uses a non-reentrant model


 *************** function _ECANSetOperationMode *****************
 Defined at:
		line 1012 in file "ECAN.c"
 Parameters:    Size  Location     Type
  mode            1    wreg     enum E16346
 Auto vars:     Size  Location     Type
  mode            1   24[COMRAM] enum E16346
 Return value:  Size  Location     Type
		None               void
 Registers used:
		wreg, status,2, status,0
 Tracked objects:
		On entry : 
		On exit  : 
		Unchanged: 
 Data sizes:     COMRAM   BANK0   BANK1   BANK2   BANK3   BANK4   BANK5
      Params:         0       0       0       0       0       0       0
      Locals:         1       0       0       0       0       0       0
      Temps:          0       0       0       0       0       0       0
      Totals:         1       0       0       0       0       0       0
Total ram usage:        1 bytes
 Hardware stack levels used:    1
 Hardware stack levels required when called:    2
 This function calls:
		Nothing
 This function is called by:
		_doModeVerbose
		_doModeVscp
		_doModeSLCAN
		_ECANInitialize
 This function uses a non-reentrant model


 *************** function _OpenTimer0 *****************
 Defined at:
		line 19 in file "C:\Program Files (x86)\Microchip\xc8\v1.21\sources\pic18\plib\Timers\t0open.c"
 Parameters:    Size  Location     Type
  config          1    wreg     unsigned char 
 Auto vars:     Size  Location     Type
  config          1   24[COMRAM] unsigned char 
 Return value:  Size  Location     Type
		None               void
 Registers used:
		wreg, status,2, status,0
 Tracked objects:
		On entry : 
		On exit  : 
		Unchanged: 
 Data sizes:     COMRAM   BANK0   BANK1   BANK2   BANK3   BANK4   BANK5
      Params:         0       0       0       0       0       0       0
      Locals:         1       0       0       0       0       0       0
      Temps:          0       0       0       0       0       0       0
      Totals:         1       0       0       0       0       0       0
Total ram usage:        1 bytes
 Hardware stack levels used:    1
 Hardware stack levels required when called:    2
 This function calls:
		Nothing
 This function is called by:
		_init
 This function uses a non-reentrant model


 *************** function _OpenUSART *****************
 Defined at:
		line 74 in file "C:\Program Files (x86)\Microchip\xc8\v1.21\sources\pic18\plib\USART\uopen.c"
 Parameters:    Size  Location     Type
  config          1    wreg     unsigned char 
  spbrg           2   24[COMRAM] unsigned int 
 Auto vars:     Size  Location     Type
  config          1   26[COMRAM] unsigned char 
 Return value:  Size  Location     Type
		None               void
 Registers used:
		wreg, status,2
 Tracked objects:
		On entry : 
		On exit  : 
		Unchanged: 
 Data sizes:     COMRAM   BANK0   BANK1   BANK2   BANK3   BANK4   BANK5
      Params:         2       0       0       0       0       0       0
      Locals:         1       0       0       0       0       0       0
      Temps:          0       0       0       0       0       0       0
      Totals:         3       0       0       0       0       0       0
Total ram usage:        3 bytes
 Hardware stack levels used:    1
 Hardware stack levels required when called:    2
 This function calls:
		Nothing
 This function is called by:
		_init
 This function uses a non-reentrant model


 *************** function _WriteTimer0 *****************
 Defined at:
		line 17 in file "C:\Program Files (x86)\Microchip\xc8\v1.21\sources\pic18\plib\Timers\t0write.c"
 Parameters:    Size  Location     Type
  timer0          2   24[COMRAM] unsigned int 
 Auto vars:     Size  Location     Type
  timer           2   26[COMRAM] struct Timers
 Return value:  Size  Location     Type
		None               void
 Registers used:
		None
 Tracked objects:
		On entry : 
		On exit  : 
		Unchanged: 
 Data sizes:     COMRAM   BANK0   BANK1   BANK2   BANK3   BANK4   BANK5
      Params:         2       0       0       0       0       0       0
      Locals:         2       0       0       0       0       0       0
      Temps:          0       0       0       0       0       0       0
      Totals:         4       0       0       0       0       0       0
Total ram usage:        4 bytes
 Hardware stack levels used:    1
 Hardware stack levels required when called:    2
 This function calls:
		Nothing
 This function is called by:
		_init
 This function uses a non-reentrant model


 *************** function _vscp_restoreDefaults *****************
 Defined at:
		line 2344 in file "main.c"
 Parameters:    Size  Location     Type
		None
 Auto vars:     Size  Location     Type
		None
 Return value:  Size  Location     Type
		None               void
 Registers used:
		wreg, status,2, status,0, cstack
 Tracked objects:
		On entry : 
		On exit  : 
		Unchanged: 
 Data sizes:     COMRAM   BANK0   BANK1   BANK2   BANK3   BANK4   BANK5
      Params:         0       0       0       0       0       0       0
      Locals:         0       0       0       0       0       0       0
      Temps:          0       0       0       0       0       0       0
      Totals:         0       0       0       0       0       0       0
Total ram usage:        0 bytes
 Hardware stack levels used:    1
 Hardware stack levels required when called:    4
 This function calls:
		_init_app_ram
		_init_app_eeprom
 This function is called by:
		_main
 This function uses a non-reentrant model


 *************** function _init_app_eeprom *****************
 Defined at:
		line 385 in file "main.c"
 Parameters:    Size  Location     Type
		None
 Auto vars:     Size  Location     Type
  i               1   27[COMRAM] unsigned char 
 Return value:  Size  Location     Type
		None               void
 Registers used:
		wreg, status,2, status,0, cstack
 Tracked objects:
		On entry : 
		On exit  : 
		Unchanged: 
 Data sizes:     COMRAM   BANK0   BANK1   BANK2   BANK3   BANK4   BANK5
      Params:         0       0       0       0       0       0       0
      Locals:         1       0       0       0       0       0       0
      Temps:          0       0       0       0       0       0       0
      Totals:         1       0       0       0       0       0       0
Total ram usage:        1 bytes
 Hardware stack levels used:    1
 Hardware stack levels required when called:    3
 This function calls:
		_writeEEPROM
 This function is called by:
		_vscp_restoreDefaults
 This function uses a non-reentrant model


 *************** function _writeEEPROM *****************
 Defined at:
		line 23 in file "eeprom.c"
 Parameters:    Size  Location     Type
  address         2   24[COMRAM] unsigned short 
  data            1   26[COMRAM] unsigned char 
 Auto vars:     Size  Location     Type
		None
 Return value:  Size  Location     Type
		None               void
 Registers used:
		wreg, status,2
 Tracked objects:
		On entry : 
		On exit  : 
		Unchanged: 
 Data sizes:     COMRAM   BANK0   BANK1   BANK2   BANK3   BANK4   BANK5
      Params:         3       0       0       0       0       0       0
      Locals:         0       0       0       0       0       0       0
      Temps:          0       0       0       0       0       0       0
      Totals:         3       0       0       0       0       0       0
Total ram usage:        3 bytes
 Hardware stack levels used:    1
 Hardware stack levels required when called:    2
 This function calls:
		Nothing
 This function is called by:
		_init_app_eeprom
		_doModeVerbose
		_doModeSLCAN
 This function uses a non-reentrant model


 *************** function _init_app_ram *****************
 Defined at:
		line 368 in file "main.c"
 Parameters:    Size  Location     Type
		None
 Auto vars:     Size  Location     Type
		None
 Return value:  Size  Location     Type
		None               void
 Registers used:
		wreg, status,2, cstack
 Tracked objects:
		On entry : 
		On exit  : 
		Unchanged: 
 Data sizes:     COMRAM   BANK0   BANK1   BANK2   BANK3   BANK4   BANK5
      Params:         0       0       0       0       0       0       0
      Locals:         0       0       0       0       0       0       0
      Temps:          0       0       0       0       0       0       0
      Totals:         0       0       0       0       0       0       0
Total ram usage:        0 bytes
 Hardware stack levels used:    1
 Hardware stack levels required when called:    3
 This function calls:
		_readEEPROM
 This function is called by:
		_init
		_vscp_restoreDefaults
 This function uses a non-reentrant model


 *************** function _readEEPROM *****************
 Defined at:
		line 87 in file "eeprom.c"
 Parameters:    Size  Location     Type
  address         2   24[COMRAM] unsigned short 
 Auto vars:     Size  Location     Type
  data            1   26[COMRAM] unsigned char 
 Return value:  Size  Location     Type
                  1    wreg      unsigned char 
 Registers used:
		wreg, status,2
 Tracked objects:
		On entry : 
		On exit  : 
		Unchanged: 
 Data sizes:     COMRAM   BANK0   BANK1   BANK2   BANK3   BANK4   BANK5
      Params:         2       0       0       0       0       0       0
      Locals:         1       0       0       0       0       0       0
      Temps:          0       0       0       0       0       0       0
      Totals:         3       0       0       0       0       0       0
Total ram usage:        3 bytes
 Hardware stack levels used:    1
 Hardware stack levels required when called:    2
 This function calls:
		Nothing
 This function is called by:
		_main
		_init_app_ram
 This function uses a non-reentrant model


 *************** function _fifo_init *****************
 Defined at:
		line 14 in file "fifo.c"
 Parameters:    Size  Location     Type
  f               2   24[COMRAM] PTR struct .
		 -> canInputFifo(8), serialInputFifo(8), 
  buf             2   26[COMRAM] PTR unsigned char 
		 -> caninputBuffer(494), inputBuffer(128), 
  size            2   28[COMRAM] unsigned short 
 Auto vars:     Size  Location     Type
		None
 Return value:  Size  Location     Type
		None               void
 Registers used:
		wreg, fsr2l, fsr2h, status,2, status,0
 Tracked objects:
		On entry : 
		On exit  : 
		Unchanged: 
 Data sizes:     COMRAM   BANK0   BANK1   BANK2   BANK3   BANK4   BANK5
      Params:         6       0       0       0       0       0       0
      Locals:         0       0       0       0       0       0       0
      Temps:          0       0       0       0       0       0       0
      Totals:         6       0       0       0       0       0       0
Total ram usage:        6 bytes
 Hardware stack levels used:    1
 Hardware stack levels required when called:    2
 This function calls:
		Nothing
 This function is called by:
		_main
 This function uses a non-reentrant model


 *************** function _Interrupt *****************
 Defined at:
		line 232 in file "main.c"
 Parameters:    Size  Location     Type
		None
 Auto vars:     Size  Location     Type
  c               1   23[COMRAM] unsigned char 
 Return value:  Size  Location     Type
		None               void
 Registers used:
		wreg, fsr1l, fsr1h, fsr2l, fsr2h, status,2, status,0, cstack
 Tracked objects:
		On entry : 
		On exit  : 
		Unchanged: 
 Data sizes:     COMRAM   BANK0   BANK1   BANK2   BANK3   BANK4   BANK5
      Params:         0       0       0       0       0       0       0
      Locals:         1       0       0       0       0       0       0
      Temps:          7       0       0       0       0       0       0
      Totals:         8       0       0       0       0       0       0
Total ram usage:        8 bytes
 Hardware stack levels used:    1
 Hardware stack levels required when called:    1
 This function calls:
		_ReadUSART
		_fifo_write
		i1_WriteTimer0
 This function is called by:
		Interrupt level 1
 This function uses a non-reentrant model


 *************** function i1_WriteTimer0 *****************
 Defined at:
		line 17 in file "C:\Program Files (x86)\Microchip\xc8\v1.21\sources\pic18\plib\Timers\t0write.c"
 Parameters:    Size  Location     Type
  timer0          2    0[COMRAM] unsigned int 
 Auto vars:     Size  Location     Type
  WriteTimer0     2    2[COMRAM] struct Timers
 Return value:  Size  Location     Type
		None               void
 Registers used:
		None
 Tracked objects:
		On entry : 
		On exit  : 
		Unchanged: 
 Data sizes:     COMRAM   BANK0   BANK1   BANK2   BANK3   BANK4   BANK5
      Params:         2       0       0       0       0       0       0
      Locals:         2       0       0       0       0       0       0
      Temps:          0       0       0       0       0       0       0
      Totals:         4       0       0       0       0       0       0
Total ram usage:        4 bytes
 Hardware stack levels used:    1
 This function calls:
		Nothing
 This function is called by:
		_Interrupt
 This function uses a non-reentrant model


 *************** function _fifo_write *****************
 Defined at:
		line 61 in file "fifo.c"
 Parameters:    Size  Location     Type
  f               2    0[COMRAM] PTR struct .
		 -> serialInputFifo(8), 
  buf             1    2[COMRAM] PTR const void 
		 -> Interrupt@c(1), 
  nbytes          4    3[COMRAM] unsigned long 
 Auto vars:     Size  Location     Type
  i               4   12[COMRAM] unsigned long 
  p               1   11[COMRAM] PTR const unsigned char 
		 -> Interrupt@c(1), 
 Return value:  Size  Location     Type
                  2    0[COMRAM] unsigned short 
 Registers used:
		wreg, fsr1l, fsr1h, fsr2l, fsr2h, status,2, status,0
 Tracked objects:
		On entry : 
		On exit  : 
		Unchanged: 
 Data sizes:     COMRAM   BANK0   BANK1   BANK2   BANK3   BANK4   BANK5
      Params:         7       0       0       0       0       0       0
      Locals:         5       0       0       0       0       0       0
      Temps:          4       0       0       0       0       0       0
      Totals:        16       0       0       0       0       0       0
Total ram usage:       16 bytes
 Hardware stack levels used:    1
 This function calls:
		Nothing
 This function is called by:
		_Interrupt
 This function uses a non-reentrant model


 *************** function _ReadUSART *****************
 Defined at:
		line 16 in file "C:\Program Files (x86)\Microchip\xc8\v1.21\sources\pic18\plib\USART\uread.c"
 Parameters:    Size  Location     Type
		None
 Auto vars:     Size  Location     Type
  data            1    0[COMRAM] unsigned char 
 Return value:  Size  Location     Type
                  1    wreg      unsigned char 
 Registers used:
		wreg, status,2, status,0
 Tracked objects:
		On entry : 
		On exit  : 
		Unchanged: 
 Data sizes:     COMRAM   BANK0   BANK1   BANK2   BANK3   BANK4   BANK5
      Params:         0       0       0       0       0       0       0
      Locals:         1       0       0       0       0       0       0
      Temps:          0       0       0       0       0       0       0
      Totals:         1       0       0       0       0       0       0
Total ram usage:        1 bytes
 Hardware stack levels used:    1
 This function calls:
		Nothing
 This function is called by:
		_Interrupt
 This function uses a non-reentrant model



MODULE INFORMATION

Module		Function		Class		Link	Load	Size
C:\Program Files (x86)\Microchip\xc8\v1.21\sources\common\lwdiv.c
		___lwdiv       		CODE           	21C4	0000	74

C:\Program Files (x86)\Microchip\xc8\v1.21\sources\common\lwdiv.c estimated size: 74

C:\Program Files (x86)\Microchip\xc8\v1.21\sources\pic18\plib\Timers\t0write.c
		_WriteTimer0   		CODE           	1CCA	0000	18

C:\Program Files (x86)\Microchip\xc8\v1.21\sources\pic18\plib\Timers\t0write.c estimated size: 18

C:\Program Files (x86)\Microchip\xc8\v1.21\sources\common\stristr.c
		_stristr       		CODE           	271E	0000	120

C:\Program Files (x86)\Microchip\xc8\v1.21\sources\common\stristr.c estimated size: 120

C:\Program Files (x86)\Microchip\xc8\v1.21\sources\common\strcat.c
		_strcat        		CODE           	22B0	0000	86

C:\Program Files (x86)\Microchip\xc8\v1.21\sources\common\strcat.c estimated size: 86

C:\Program Files (x86)\Microchip\xc8\v1.21\sources\common\wmul.c
		___wmul        		CODE           	1E28	0000	34

C:\Program Files (x86)\Microchip\xc8\v1.21\sources\common\wmul.c estimated size: 34

hexutils.c
		_hexStringToByt		CODE           	2ADC	0000	154
		_nibbleFromChar		CODE           	1FF4	0000	62

hexutils.c estimated size: 216

shared
		PL12           		CODE           	593E	0000	30
		PL50           		CODE           	59AC	0000	22
		PL8            		CODE           	6BC2	0000	74
		PL22           		CODE           	3798	0000	14
		PL60           		CODE           	29A8	0000	14
		PL32           		CODE           	396C	0000	20
		PL70           		CODE           	3AB8	0000	20
		PL42           		CODE           	6C90	0000	26
		PL80           		CODE           	59E4	0000	18
		PL14           		CODE           	3BD6	0000	46
		PL52           		CODE           	6CAA	0000	24
		PL90           		CODE           	4A06	0000	14
		PL24           		CODE           	321C	0000	16
		PL62           		CODE           	59C2	0000	14
		PL34           		CODE           	6C56	0000	18
		PL72           		CODE           	35A6	0000	20
		__stringdata   		MEDIUMCONST    	6D50	0000	4015
		PL44           		CODE           	5992	0000	26
		PL82           		CODE           	52B2	0000	12
		PL16           		CODE           	6C28	0000	26
		PL54           		CODE           	3990	0000	18
		PL92           		CODE           	2064	0000	14
		PL26           		CODE           	2F9C	0000	34
		PL64           		CODE           	3A92	0000	20
		PL36           		CODE           	6C68	0000	14
		PL74           		CODE           	39A2	0000	20
		PL46           		CODE           	322C	0000	10
		PL84           		CODE           	59F6	0000	10
		_dpowers       		MEDIUMCONST    	6D08	0000	40
		PL18           		CODE           	595C	0000	16
		PL56           		CODE           	4484	0000	22
		PL94           		CODE           	3D3E	0000	14
		PL28           		CODE           	3698	0000	16
		PL66           		CODE           	59D0	0000	20
		PL38           		CODE           	3A84	0000	14
		PL76           		CODE           	3898	0000	20
		PL48           		CODE           	3980	0000	16
		PL86           		CODE           	1E4A	0000	16
		PL58           		CODE           	6CC2	0000	22
		PL96           		CODE           	39B6	0000	10
		PL68           		CODE           	3AA6	0000	18
		PL78           		CODE           	3ACC	0000	18
		PL88           		CODE           	461E	0000	14
		PL98           		CODE           	5A00	0000	10
		__initializatio		CODE           	2482	0000	88
		_octpowers     		MEDIUMCONST    	6CD8	0000	48
		_hexpowers     		MEDIUMCONST    	6D30	0000	32
		i1_WriteTimer0 		CODE           	1CA6	0000	18
		PL2            		CODE           	6BA6	0000	14
		PL10           		CODE           	6C0C	0000	28
		PL4            		CODE           	2EE0	0000	16
		PL20           		CODE           	596C	0000	38
		PL30           		CODE           	6C42	0000	20
		PL6            		CODE           	6BB4	0000	14
		PL40           		CODE           	6C76	0000	26

shared estimated size: 5237

C:\Program Files (x86)\Microchip\xc8\v1.21\sources\common\doprnt.c
		_sprintf       		CODE           	52BE	0000	1664

C:\Program Files (x86)\Microchip\xc8\v1.21\sources\common\doprnt.c estimated size: 1664

C:\Program Files (x86)\Microchip\xc8\v1.21\sources\common\strcspn.c
		_strcspn       		CODE           	213A	0000	68

C:\Program Files (x86)\Microchip\xc8\v1.21\sources\common\strcspn.c estimated size: 68

C:\Program Files (x86)\Microchip\xc8\v1.21\sources\common\strnicmp.c
		_strnicmp      		CODE           	2420	0000	98

C:\Program Files (x86)\Microchip\xc8\v1.21\sources\common\strnicmp.c estimated size: 98

C:\Program Files (x86)\Microchip\xc8\v1.21\sources\common\llmod.c
		___llmod       		CODE           	23BE	0000	98

C:\Program Files (x86)\Microchip\xc8\v1.21\sources\common\llmod.c estimated size: 98

C:\Program Files (x86)\Microchip\xc8\v1.21\sources\common\isdigit.c
		_isdigit       		CODE           	1D5A	0000	30

C:\Program Files (x86)\Microchip\xc8\v1.21\sources\common\isdigit.c estimated size: 30

C:\Program Files (x86)\Microchip\xc8\v1.21\sources\common\strcpy.c
		_strcpy        		CODE           	1DCA	0000	46

C:\Program Files (x86)\Microchip\xc8\v1.21\sources\common\strcpy.c estimated size: 46

eeprom.c
		_readEEPROM    		CODE           	1CB8	0000	18
		_writeEEPROM   		CODE           	1D78	0000	38

eeprom.c estimated size: 56

C:\Program Files (x86)\Microchip\xc8\v1.21\sources\common\lldiv.c
		___lldiv       		CODE           	2632	0000	118

C:\Program Files (x86)\Microchip\xc8\v1.21\sources\common\lldiv.c estimated size: 118

C:\Program Files (x86)\Microchip\xc8\v1.21\sources\common\itoa.c
		_itoa          		CODE           	1E5A	0000	56
		_utoa          		CODE           	2B76	0000	160

C:\Program Files (x86)\Microchip\xc8\v1.21\sources\common\itoa.c estimated size: 216

C:\Program Files (x86)\Microchip\xc8\v1.21\sources\pic18\plib\USART\uread.c
		_ReadUSART     		CODE           	1D1E	0000	30

C:\Program Files (x86)\Microchip\xc8\v1.21\sources\pic18\plib\USART\uread.c estimated size: 30

C:\Program Files (x86)\Microchip\xc8\v1.21\sources\pic18\plib\Timers\t0open.c
		_OpenTimer0    		CODE           	1D3C	0000	30

C:\Program Files (x86)\Microchip\xc8\v1.21\sources\pic18\plib\Timers\t0open.c estimated size: 30

main.c
		_sendEscapedUar		CODE           	2552	0000	110
		_readRegister  		CODE           	2C16	0000	168
		_init          		CODE           	20B2	0000	68
		_receivePrintEv		CODE           	4A14	0000	630
		_findNodes     		CODE           	33EE	0000	230
		_getVSCPFrame  		CODE           	2818	0000	132
		_writeRegisterE		CODE           	3236	0000	218
		_receivePrintEv		CODE           	3C04	0000	314
		_calcCRC       		CODE           	1ECA	0000	56
		_Interrupt     		CODE           	0018	0000	400
		_vscp_restoreDe		CODE           	1C9E	0000	8
		_getCANFrame   		CODE           	1DF8	0000	48
		_main          		CODE           	3D4C	0000	332
		_readRegisterEx		CODE           	308E	0000	208
		_sendVSCPDriver		CODE           	35BA	0000	222
		_printNodeFirmw		CODE           	2FBE	0000	208
		_sendVSCPFrame 		CODE           	2D74	0000	188
		_sendVSCPDriver		CODE           	2CBE	0000	182
		_init_app_eepro		CODE           	289C	0000	138
		_sendCANFrame  		CODE           	1F02	0000	58
		_doModeSLCAN   		CODE           	4F24	0000	910
		_setFilter     		CODE           	462C	0000	476
		_printMode     		CODE           	25C0	0000	114
		_doModeVscp    		CODE           	4312	0000	370
		_printGUID     		CODE           	37A6	0000	242
		_printStatistic		CODE           	418A	0000	392
		_printBinary   		CODE           	217E	0000	70
		_sendVSCPDriver		CODE           	2E30	0000	176
		_doModeVerbose 		CODE           	5A0A	0000	4508
		_receivePrintEv		CODE           	449A	0000	388
		_doModeVscpNode		CODE           	1C9C	0000	2
		_printFirmwareV		CODE           	2926	0000	130
		_sendVSCPDriver		CODE           	315E	0000	190
		_printErrors   		CODE           	4C8A	0000	666
		_init_app_ram  		CODE           	220E	0000	78
		_printHelp     		CODE           	400A	0000	384
		_printMDF      		CODE           	2A48	0000	148
		_receiveVSCPMod		CODE           	3310	0000	222

main.c estimated size: 13384

C:\Program Files (x86)\Microchip\xc8\v1.21\sources\common\strichr.c
		_strichr       		CODE           	1FB6	0000	62

C:\Program Files (x86)\Microchip\xc8\v1.21\sources\common\strichr.c estimated size: 62

C:\Program Files (x86)\Microchip\xc8\v1.21\sources\common\strlen.c
		_strlen        		CODE           	1F3C	0000	60

C:\Program Files (x86)\Microchip\xc8\v1.21\sources\common\strlen.c estimated size: 60

crc8.c
		_crc8          		CODE           	1E92	0000	56
		_init_crc8     		CODE           	24E4	0000	110

crc8.c estimated size: 166

C:\Program Files (x86)\Microchip\xc8\v1.21\sources\common\memcpy.c
		_memcpy        		CODE           	2072	0000	64

C:\Program Files (x86)\Microchip\xc8\v1.21\sources\common\memcpy.c estimated size: 64

C:\Program Files (x86)\Microchip\xc8\v1.21\sources\common\strtok.c
		_strtok        		CODE           	29B6	0000	146

C:\Program Files (x86)\Microchip\xc8\v1.21\sources\common\strtok.c estimated size: 146

fifo.c
		_fifo_write    		CODE           	3ADE	0000	248
		_fifo_read     		CODE           	2EF0	0000	172
		_fifo_init     		CODE           	2032	0000	50

fifo.c estimated size: 470

C:\Program Files (x86)\Microchip\xc8\v1.21\sources\common\strspn.c
		_strspn        		CODE           	20F6	0000	68

C:\Program Files (x86)\Microchip\xc8\v1.21\sources\common\strspn.c estimated size: 68

ECAN.c
		_ECANReceiveMes		CODE           	4808	0000	510
		__RegsToCANID  		CODE           	39C0	0000	196
		__ECANPointBuff		CODE           	26A8	0000	118
		_ECANInitialize		CODE           	2796	0000	130
		__CANIDToRegs  		CODE           	38AC	0000	192
		_ECANSetOperati		CODE           	1D06	0000	24
		_ECANSendMessag		CODE           	3E98	0000	370

ECAN.c estimated size: 1540

C:\Program Files (x86)\Microchip\xc8\v1.21\sources\pic18\plib\USART\uwrite.c
		_WriteUSART    		CODE           	1CDC	0000	20

C:\Program Files (x86)\Microchip\xc8\v1.21\sources\pic18\plib\USART\uwrite.c estimated size: 20

C:\Program Files (x86)\Microchip\xc8\v1.21\sources\pic18\plib\USART\uputs.c
		_putsUSART     		CODE           	225C	0000	84

C:\Program Files (x86)\Microchip\xc8\v1.21\sources\pic18\plib\USART\uputs.c estimated size: 84

C:\Program Files (x86)\Microchip\xc8\v1.21\sources\pic18\plib\USART\uopen.c
		_OpenUSART     		CODE           	2306	0000	92

C:\Program Files (x86)\Microchip\xc8\v1.21\sources\pic18\plib\USART\uopen.c estimated size: 92

C:\Program Files (x86)\Microchip\xc8\v1.21\sources\common\lwmod.c
		___lwmod       		CODE           	1F78	0000	62

C:\Program Files (x86)\Microchip\xc8\v1.21\sources\common\lwmod.c estimated size: 62

C:\Program Files (x86)\Microchip\xc8\v1.21\sources\common\atoi.c
		_atoi          		CODE           	36A8	0000	240

C:\Program Files (x86)\Microchip\xc8\v1.21\sources\common\atoi.c estimated size: 240

C:\Program Files (x86)\Microchip\xc8\v1.21\sources\common\strchr.c
		_strchr        		CODE           	2362	0000	92

C:\Program Files (x86)\Microchip\xc8\v1.21\sources\common\strchr.c estimated size: 92

C:\Program Files (x86)\Microchip\xc8\v1.21\sources\common\toupper.c
		_toupper       		CODE           	1CF0	0000	22

C:\Program Files (x86)\Microchip\xc8\v1.21\sources\common\toupper.c estimated size: 22

C:\Program Files (x86)\Microchip\xc8\v1.21\sources\common\ltoa.c
		_ultoa         		CODE           	34D4	0000	210

C:\Program Files (x86)\Microchip\xc8\v1.21\sources\common\ltoa.c estimated size: 210

C:\Program Files (x86)\Microchip\xc8\v1.21\sources\common\memset.c
		_memset        		CODE           	1D9E	0000	44

C:\Program Files (x86)\Microchip\xc8\v1.21\sources\common\memset.c estimated size: 44

